
smart_lockV2.elf:     file format elf32-avr

Sections:
Idx Name          Size      VMA       LMA       File off  Algn
  0 .text         00000df4  00000000  00000000  00000094  2**1
                  CONTENTS, ALLOC, LOAD, READONLY, CODE
  1 .data         00000140  00800060  00000df4  00000e88  2**0
                  CONTENTS, ALLOC, LOAD, DATA
  2 .bss          00000001  008001a0  008001a0  00000fc8  2**0
                  ALLOC
  3 .comment      00000030  00000000  00000000  00000fc8  2**0
                  CONTENTS, READONLY
  4 .note.gnu.avr.deviceinfo 0000003c  00000000  00000000  00000ff8  2**2
                  CONTENTS, READONLY
  5 .debug_info   0000052e  00000000  00000000  00001034  2**0
                  CONTENTS, READONLY, DEBUGGING
  6 .debug_abbrev 000004e7  00000000  00000000  00001562  2**0
                  CONTENTS, READONLY, DEBUGGING
  7 .debug_line   00000115  00000000  00000000  00001a49  2**0
                  CONTENTS, READONLY, DEBUGGING
  8 .debug_str    000001af  00000000  00000000  00001b5e  2**0
                  CONTENTS, READONLY, DEBUGGING

Disassembly of section .text:

00000000 <__vectors>:
   0:	0c 94 2a 00 	jmp	0x54	; 0x54 <__ctors_end>
   4:	0c 94 1f 05 	jmp	0xa3e	; 0xa3e <__vector_1>
   8:	0c 94 e4 05 	jmp	0xbc8	; 0xbc8 <__vector_2>
   c:	0c 94 47 00 	jmp	0x8e	; 0x8e <__bad_interrupt>
  10:	0c 94 47 00 	jmp	0x8e	; 0x8e <__bad_interrupt>
  14:	0c 94 47 00 	jmp	0x8e	; 0x8e <__bad_interrupt>
  18:	0c 94 47 00 	jmp	0x8e	; 0x8e <__bad_interrupt>
  1c:	0c 94 47 00 	jmp	0x8e	; 0x8e <__bad_interrupt>
  20:	0c 94 47 00 	jmp	0x8e	; 0x8e <__bad_interrupt>
  24:	0c 94 47 00 	jmp	0x8e	; 0x8e <__bad_interrupt>
  28:	0c 94 47 00 	jmp	0x8e	; 0x8e <__bad_interrupt>
  2c:	0c 94 47 00 	jmp	0x8e	; 0x8e <__bad_interrupt>
  30:	0c 94 47 00 	jmp	0x8e	; 0x8e <__bad_interrupt>
  34:	0c 94 47 00 	jmp	0x8e	; 0x8e <__bad_interrupt>
  38:	0c 94 47 00 	jmp	0x8e	; 0x8e <__bad_interrupt>
  3c:	0c 94 47 00 	jmp	0x8e	; 0x8e <__bad_interrupt>
  40:	0c 94 47 00 	jmp	0x8e	; 0x8e <__bad_interrupt>
  44:	0c 94 47 00 	jmp	0x8e	; 0x8e <__bad_interrupt>
  48:	0c 94 47 00 	jmp	0x8e	; 0x8e <__bad_interrupt>
  4c:	0c 94 47 00 	jmp	0x8e	; 0x8e <__bad_interrupt>
  50:	0c 94 47 00 	jmp	0x8e	; 0x8e <__bad_interrupt>

00000054 <__ctors_end>:
  54:	11 24       	eor	r1, r1
  56:	1f be       	out	0x3f, r1	; 63
  58:	cf e5       	ldi	r28, 0x5F	; 95
  5a:	d4 e0       	ldi	r29, 0x04	; 4
  5c:	de bf       	out	0x3e, r29	; 62
  5e:	cd bf       	out	0x3d, r28	; 61

00000060 <__do_copy_data>:
  60:	11 e0       	ldi	r17, 0x01	; 1
  62:	a0 e6       	ldi	r26, 0x60	; 96
  64:	b0 e0       	ldi	r27, 0x00	; 0
  66:	e4 ef       	ldi	r30, 0xF4	; 244
  68:	fd e0       	ldi	r31, 0x0D	; 13
  6a:	02 c0       	rjmp	.+4      	; 0x70 <__do_copy_data+0x10>
  6c:	05 90       	lpm	r0, Z+
  6e:	0d 92       	st	X+, r0
  70:	a0 3a       	cpi	r26, 0xA0	; 160
  72:	b1 07       	cpc	r27, r17
  74:	d9 f7       	brne	.-10     	; 0x6c <__do_copy_data+0xc>

00000076 <__do_clear_bss>:
  76:	21 e0       	ldi	r18, 0x01	; 1
  78:	a0 ea       	ldi	r26, 0xA0	; 160
  7a:	b1 e0       	ldi	r27, 0x01	; 1
  7c:	01 c0       	rjmp	.+2      	; 0x80 <.do_clear_bss_start>

0000007e <.do_clear_bss_loop>:
  7e:	1d 92       	st	X+, r1

00000080 <.do_clear_bss_start>:
  80:	a1 3a       	cpi	r26, 0xA1	; 161
  82:	b2 07       	cpc	r27, r18
  84:	e1 f7       	brne	.-8      	; 0x7e <.do_clear_bss_loop>
  86:	0e 94 20 06 	call	0xc40	; 0xc40 <main>
  8a:	0c 94 f8 06 	jmp	0xdf0	; 0xdf0 <_exit>

0000008e <__bad_interrupt>:
  8e:	0c 94 00 00 	jmp	0	; 0x0 <__vectors>

00000092 <DIO_SetPinDir>:
  92:	44 23       	and	r20, r20
  94:	79 f1       	breq	.+94     	; 0xf4 <DIO_SetPinDir+0x62>
  96:	41 30       	cpi	r20, 0x01	; 1
  98:	09 f0       	breq	.+2      	; 0x9c <DIO_SetPinDir+0xa>
  9a:	5f c0       	rjmp	.+190    	; 0x15a <DIO_SetPinDir+0xc8>
  9c:	81 30       	cpi	r24, 0x01	; 1
  9e:	79 f0       	breq	.+30     	; 0xbe <DIO_SetPinDir+0x2c>
  a0:	28 f0       	brcs	.+10     	; 0xac <DIO_SetPinDir+0x1a>
  a2:	82 30       	cpi	r24, 0x02	; 2
  a4:	a9 f0       	breq	.+42     	; 0xd0 <DIO_SetPinDir+0x3e>
  a6:	83 30       	cpi	r24, 0x03	; 3
  a8:	e1 f0       	breq	.+56     	; 0xe2 <DIO_SetPinDir+0x50>
  aa:	08 95       	ret
  ac:	2a b3       	in	r18, 0x1a	; 26
  ae:	81 e0       	ldi	r24, 0x01	; 1
  b0:	90 e0       	ldi	r25, 0x00	; 0
  b2:	01 c0       	rjmp	.+2      	; 0xb6 <DIO_SetPinDir+0x24>
  b4:	88 0f       	add	r24, r24
  b6:	6a 95       	dec	r22
  b8:	ea f7       	brpl	.-6      	; 0xb4 <DIO_SetPinDir+0x22>
  ba:	82 2b       	or	r24, r18
  bc:	2c c0       	rjmp	.+88     	; 0x116 <DIO_SetPinDir+0x84>
  be:	27 b3       	in	r18, 0x17	; 23
  c0:	81 e0       	ldi	r24, 0x01	; 1
  c2:	90 e0       	ldi	r25, 0x00	; 0
  c4:	01 c0       	rjmp	.+2      	; 0xc8 <DIO_SetPinDir+0x36>
  c6:	88 0f       	add	r24, r24
  c8:	6a 95       	dec	r22
  ca:	ea f7       	brpl	.-6      	; 0xc6 <DIO_SetPinDir+0x34>
  cc:	82 2b       	or	r24, r18
  ce:	2e c0       	rjmp	.+92     	; 0x12c <DIO_SetPinDir+0x9a>
  d0:	24 b3       	in	r18, 0x14	; 20
  d2:	81 e0       	ldi	r24, 0x01	; 1
  d4:	90 e0       	ldi	r25, 0x00	; 0
  d6:	01 c0       	rjmp	.+2      	; 0xda <DIO_SetPinDir+0x48>
  d8:	88 0f       	add	r24, r24
  da:	6a 95       	dec	r22
  dc:	ea f7       	brpl	.-6      	; 0xd8 <DIO_SetPinDir+0x46>
  de:	82 2b       	or	r24, r18
  e0:	30 c0       	rjmp	.+96     	; 0x142 <DIO_SetPinDir+0xb0>
  e2:	21 b3       	in	r18, 0x11	; 17
  e4:	81 e0       	ldi	r24, 0x01	; 1
  e6:	90 e0       	ldi	r25, 0x00	; 0
  e8:	01 c0       	rjmp	.+2      	; 0xec <DIO_SetPinDir+0x5a>
  ea:	88 0f       	add	r24, r24
  ec:	6a 95       	dec	r22
  ee:	ea f7       	brpl	.-6      	; 0xea <DIO_SetPinDir+0x58>
  f0:	82 2b       	or	r24, r18
  f2:	32 c0       	rjmp	.+100    	; 0x158 <DIO_SetPinDir+0xc6>
  f4:	81 30       	cpi	r24, 0x01	; 1
  f6:	89 f0       	breq	.+34     	; 0x11a <DIO_SetPinDir+0x88>
  f8:	28 f0       	brcs	.+10     	; 0x104 <DIO_SetPinDir+0x72>
  fa:	82 30       	cpi	r24, 0x02	; 2
  fc:	c9 f0       	breq	.+50     	; 0x130 <DIO_SetPinDir+0x9e>
  fe:	83 30       	cpi	r24, 0x03	; 3
 100:	11 f1       	breq	.+68     	; 0x146 <DIO_SetPinDir+0xb4>
 102:	08 95       	ret
 104:	2a b3       	in	r18, 0x1a	; 26
 106:	81 e0       	ldi	r24, 0x01	; 1
 108:	90 e0       	ldi	r25, 0x00	; 0
 10a:	01 c0       	rjmp	.+2      	; 0x10e <DIO_SetPinDir+0x7c>
 10c:	88 0f       	add	r24, r24
 10e:	6a 95       	dec	r22
 110:	ea f7       	brpl	.-6      	; 0x10c <DIO_SetPinDir+0x7a>
 112:	80 95       	com	r24
 114:	82 23       	and	r24, r18
 116:	8a bb       	out	0x1a, r24	; 26
 118:	08 95       	ret
 11a:	27 b3       	in	r18, 0x17	; 23
 11c:	81 e0       	ldi	r24, 0x01	; 1
 11e:	90 e0       	ldi	r25, 0x00	; 0
 120:	01 c0       	rjmp	.+2      	; 0x124 <DIO_SetPinDir+0x92>
 122:	88 0f       	add	r24, r24
 124:	6a 95       	dec	r22
 126:	ea f7       	brpl	.-6      	; 0x122 <DIO_SetPinDir+0x90>
 128:	80 95       	com	r24
 12a:	82 23       	and	r24, r18
 12c:	87 bb       	out	0x17, r24	; 23
 12e:	08 95       	ret
 130:	24 b3       	in	r18, 0x14	; 20
 132:	81 e0       	ldi	r24, 0x01	; 1
 134:	90 e0       	ldi	r25, 0x00	; 0
 136:	01 c0       	rjmp	.+2      	; 0x13a <DIO_SetPinDir+0xa8>
 138:	88 0f       	add	r24, r24
 13a:	6a 95       	dec	r22
 13c:	ea f7       	brpl	.-6      	; 0x138 <DIO_SetPinDir+0xa6>
 13e:	80 95       	com	r24
 140:	82 23       	and	r24, r18
 142:	84 bb       	out	0x14, r24	; 20
 144:	08 95       	ret
 146:	21 b3       	in	r18, 0x11	; 17
 148:	81 e0       	ldi	r24, 0x01	; 1
 14a:	90 e0       	ldi	r25, 0x00	; 0
 14c:	01 c0       	rjmp	.+2      	; 0x150 <DIO_SetPinDir+0xbe>
 14e:	88 0f       	add	r24, r24
 150:	6a 95       	dec	r22
 152:	ea f7       	brpl	.-6      	; 0x14e <DIO_SetPinDir+0xbc>
 154:	80 95       	com	r24
 156:	82 23       	and	r24, r18
 158:	81 bb       	out	0x11, r24	; 17
 15a:	08 95       	ret

0000015c <DIO_WritePin>:
 15c:	44 23       	and	r20, r20
 15e:	79 f1       	breq	.+94     	; 0x1be <DIO_WritePin+0x62>
 160:	41 30       	cpi	r20, 0x01	; 1
 162:	09 f0       	breq	.+2      	; 0x166 <DIO_WritePin+0xa>
 164:	5f c0       	rjmp	.+190    	; 0x224 <DIO_WritePin+0xc8>
 166:	81 30       	cpi	r24, 0x01	; 1
 168:	79 f0       	breq	.+30     	; 0x188 <DIO_WritePin+0x2c>
 16a:	28 f0       	brcs	.+10     	; 0x176 <DIO_WritePin+0x1a>
 16c:	82 30       	cpi	r24, 0x02	; 2
 16e:	a9 f0       	breq	.+42     	; 0x19a <DIO_WritePin+0x3e>
 170:	83 30       	cpi	r24, 0x03	; 3
 172:	e1 f0       	breq	.+56     	; 0x1ac <DIO_WritePin+0x50>
 174:	08 95       	ret
 176:	2b b3       	in	r18, 0x1b	; 27
 178:	81 e0       	ldi	r24, 0x01	; 1
 17a:	90 e0       	ldi	r25, 0x00	; 0
 17c:	01 c0       	rjmp	.+2      	; 0x180 <DIO_WritePin+0x24>
 17e:	88 0f       	add	r24, r24
 180:	6a 95       	dec	r22
 182:	ea f7       	brpl	.-6      	; 0x17e <DIO_WritePin+0x22>
 184:	82 2b       	or	r24, r18
 186:	2c c0       	rjmp	.+88     	; 0x1e0 <DIO_WritePin+0x84>
 188:	28 b3       	in	r18, 0x18	; 24
 18a:	81 e0       	ldi	r24, 0x01	; 1
 18c:	90 e0       	ldi	r25, 0x00	; 0
 18e:	01 c0       	rjmp	.+2      	; 0x192 <DIO_WritePin+0x36>
 190:	88 0f       	add	r24, r24
 192:	6a 95       	dec	r22
 194:	ea f7       	brpl	.-6      	; 0x190 <DIO_WritePin+0x34>
 196:	82 2b       	or	r24, r18
 198:	2e c0       	rjmp	.+92     	; 0x1f6 <DIO_WritePin+0x9a>
 19a:	25 b3       	in	r18, 0x15	; 21
 19c:	81 e0       	ldi	r24, 0x01	; 1
 19e:	90 e0       	ldi	r25, 0x00	; 0
 1a0:	01 c0       	rjmp	.+2      	; 0x1a4 <DIO_WritePin+0x48>
 1a2:	88 0f       	add	r24, r24
 1a4:	6a 95       	dec	r22
 1a6:	ea f7       	brpl	.-6      	; 0x1a2 <DIO_WritePin+0x46>
 1a8:	82 2b       	or	r24, r18
 1aa:	30 c0       	rjmp	.+96     	; 0x20c <DIO_WritePin+0xb0>
 1ac:	22 b3       	in	r18, 0x12	; 18
 1ae:	81 e0       	ldi	r24, 0x01	; 1
 1b0:	90 e0       	ldi	r25, 0x00	; 0
 1b2:	01 c0       	rjmp	.+2      	; 0x1b6 <DIO_WritePin+0x5a>
 1b4:	88 0f       	add	r24, r24
 1b6:	6a 95       	dec	r22
 1b8:	ea f7       	brpl	.-6      	; 0x1b4 <DIO_WritePin+0x58>
 1ba:	82 2b       	or	r24, r18
 1bc:	32 c0       	rjmp	.+100    	; 0x222 <DIO_WritePin+0xc6>
 1be:	81 30       	cpi	r24, 0x01	; 1
 1c0:	89 f0       	breq	.+34     	; 0x1e4 <DIO_WritePin+0x88>
 1c2:	28 f0       	brcs	.+10     	; 0x1ce <DIO_WritePin+0x72>
 1c4:	82 30       	cpi	r24, 0x02	; 2
 1c6:	c9 f0       	breq	.+50     	; 0x1fa <DIO_WritePin+0x9e>
 1c8:	83 30       	cpi	r24, 0x03	; 3
 1ca:	11 f1       	breq	.+68     	; 0x210 <DIO_WritePin+0xb4>
 1cc:	08 95       	ret
 1ce:	2b b3       	in	r18, 0x1b	; 27
 1d0:	81 e0       	ldi	r24, 0x01	; 1
 1d2:	90 e0       	ldi	r25, 0x00	; 0
 1d4:	01 c0       	rjmp	.+2      	; 0x1d8 <DIO_WritePin+0x7c>
 1d6:	88 0f       	add	r24, r24
 1d8:	6a 95       	dec	r22
 1da:	ea f7       	brpl	.-6      	; 0x1d6 <DIO_WritePin+0x7a>
 1dc:	80 95       	com	r24
 1de:	82 23       	and	r24, r18
 1e0:	8b bb       	out	0x1b, r24	; 27
 1e2:	08 95       	ret
 1e4:	28 b3       	in	r18, 0x18	; 24
 1e6:	81 e0       	ldi	r24, 0x01	; 1
 1e8:	90 e0       	ldi	r25, 0x00	; 0
 1ea:	01 c0       	rjmp	.+2      	; 0x1ee <DIO_WritePin+0x92>
 1ec:	88 0f       	add	r24, r24
 1ee:	6a 95       	dec	r22
 1f0:	ea f7       	brpl	.-6      	; 0x1ec <DIO_WritePin+0x90>
 1f2:	80 95       	com	r24
 1f4:	82 23       	and	r24, r18
 1f6:	88 bb       	out	0x18, r24	; 24
 1f8:	08 95       	ret
 1fa:	25 b3       	in	r18, 0x15	; 21
 1fc:	81 e0       	ldi	r24, 0x01	; 1
 1fe:	90 e0       	ldi	r25, 0x00	; 0
 200:	01 c0       	rjmp	.+2      	; 0x204 <DIO_WritePin+0xa8>
 202:	88 0f       	add	r24, r24
 204:	6a 95       	dec	r22
 206:	ea f7       	brpl	.-6      	; 0x202 <DIO_WritePin+0xa6>
 208:	80 95       	com	r24
 20a:	82 23       	and	r24, r18
 20c:	85 bb       	out	0x15, r24	; 21
 20e:	08 95       	ret
 210:	22 b3       	in	r18, 0x12	; 18
 212:	81 e0       	ldi	r24, 0x01	; 1
 214:	90 e0       	ldi	r25, 0x00	; 0
 216:	01 c0       	rjmp	.+2      	; 0x21a <DIO_WritePin+0xbe>
 218:	88 0f       	add	r24, r24
 21a:	6a 95       	dec	r22
 21c:	ea f7       	brpl	.-6      	; 0x218 <DIO_WritePin+0xbc>
 21e:	80 95       	com	r24
 220:	82 23       	and	r24, r18
 222:	82 bb       	out	0x12, r24	; 18
 224:	08 95       	ret

00000226 <DIO_ReadPin>:
 226:	fa 01       	movw	r30, r20
 228:	81 30       	cpi	r24, 0x01	; 1
 22a:	41 f0       	breq	.+16     	; 0x23c <DIO_ReadPin+0x16>
 22c:	28 f0       	brcs	.+10     	; 0x238 <DIO_ReadPin+0x12>
 22e:	82 30       	cpi	r24, 0x02	; 2
 230:	39 f0       	breq	.+14     	; 0x240 <DIO_ReadPin+0x1a>
 232:	83 30       	cpi	r24, 0x03	; 3
 234:	39 f0       	breq	.+14     	; 0x244 <DIO_ReadPin+0x1e>
 236:	08 95       	ret
 238:	89 b3       	in	r24, 0x19	; 25
 23a:	05 c0       	rjmp	.+10     	; 0x246 <DIO_ReadPin+0x20>
 23c:	86 b3       	in	r24, 0x16	; 22
 23e:	03 c0       	rjmp	.+6      	; 0x246 <DIO_ReadPin+0x20>
 240:	83 b3       	in	r24, 0x13	; 19
 242:	01 c0       	rjmp	.+2      	; 0x246 <DIO_ReadPin+0x20>
 244:	80 b3       	in	r24, 0x10	; 16
 246:	90 e0       	ldi	r25, 0x00	; 0
 248:	02 c0       	rjmp	.+4      	; 0x24e <DIO_ReadPin+0x28>
 24a:	95 95       	asr	r25
 24c:	87 95       	ror	r24
 24e:	6a 95       	dec	r22
 250:	e2 f7       	brpl	.-8      	; 0x24a <DIO_ReadPin+0x24>
 252:	81 70       	andi	r24, 0x01	; 1
 254:	80 83       	st	Z, r24
 256:	08 95       	ret

00000258 <DIO_SetPullUp>:
 258:	81 30       	cpi	r24, 0x01	; 1
 25a:	81 f0       	breq	.+32     	; 0x27c <DIO_SetPullUp+0x24>
 25c:	28 f0       	brcs	.+10     	; 0x268 <DIO_SetPullUp+0x10>
 25e:	82 30       	cpi	r24, 0x02	; 2
 260:	b9 f0       	breq	.+46     	; 0x290 <DIO_SetPullUp+0x38>
 262:	83 30       	cpi	r24, 0x03	; 3
 264:	f9 f0       	breq	.+62     	; 0x2a4 <DIO_SetPullUp+0x4c>
 266:	08 95       	ret
 268:	2b b3       	in	r18, 0x1b	; 27
 26a:	81 e0       	ldi	r24, 0x01	; 1
 26c:	90 e0       	ldi	r25, 0x00	; 0
 26e:	01 c0       	rjmp	.+2      	; 0x272 <DIO_SetPullUp+0x1a>
 270:	88 0f       	add	r24, r24
 272:	6a 95       	dec	r22
 274:	ea f7       	brpl	.-6      	; 0x270 <DIO_SetPullUp+0x18>
 276:	82 2b       	or	r24, r18
 278:	8b bb       	out	0x1b, r24	; 27
 27a:	08 95       	ret
 27c:	28 b3       	in	r18, 0x18	; 24
 27e:	81 e0       	ldi	r24, 0x01	; 1
 280:	90 e0       	ldi	r25, 0x00	; 0
 282:	01 c0       	rjmp	.+2      	; 0x286 <DIO_SetPullUp+0x2e>
 284:	88 0f       	add	r24, r24
 286:	6a 95       	dec	r22
 288:	ea f7       	brpl	.-6      	; 0x284 <DIO_SetPullUp+0x2c>
 28a:	82 2b       	or	r24, r18
 28c:	88 bb       	out	0x18, r24	; 24
 28e:	08 95       	ret
 290:	25 b3       	in	r18, 0x15	; 21
 292:	81 e0       	ldi	r24, 0x01	; 1
 294:	90 e0       	ldi	r25, 0x00	; 0
 296:	01 c0       	rjmp	.+2      	; 0x29a <DIO_SetPullUp+0x42>
 298:	88 0f       	add	r24, r24
 29a:	6a 95       	dec	r22
 29c:	ea f7       	brpl	.-6      	; 0x298 <DIO_SetPullUp+0x40>
 29e:	82 2b       	or	r24, r18
 2a0:	85 bb       	out	0x15, r24	; 21
 2a2:	08 95       	ret
 2a4:	22 b3       	in	r18, 0x12	; 18
 2a6:	81 e0       	ldi	r24, 0x01	; 1
 2a8:	90 e0       	ldi	r25, 0x00	; 0
 2aa:	01 c0       	rjmp	.+2      	; 0x2ae <DIO_SetPullUp+0x56>
 2ac:	88 0f       	add	r24, r24
 2ae:	6a 95       	dec	r22
 2b0:	ea f7       	brpl	.-6      	; 0x2ac <DIO_SetPullUp+0x54>
 2b2:	82 2b       	or	r24, r18
 2b4:	82 bb       	out	0x12, r24	; 18
 2b6:	08 95       	ret

000002b8 <EEPROM_write>:
 2b8:	e1 99       	sbic	0x1c, 1	; 28
 2ba:	fe cf       	rjmp	.-4      	; 0x2b8 <EEPROM_write>
 2bc:	91 e0       	ldi	r25, 0x01	; 1
 2be:	98 0f       	add	r25, r24
 2c0:	8e bb       	out	0x1e, r24	; 30
 2c2:	6f 3f       	cpi	r22, 0xFF	; 255
 2c4:	71 05       	cpc	r23, r1
 2c6:	09 f0       	breq	.+2      	; 0x2ca <EEPROM_write+0x12>
 2c8:	60 f4       	brcc	.+24     	; 0x2e2 <EEPROM_write+0x2a>
 2ca:	6d bb       	out	0x1d, r22	; 29
 2cc:	e2 9a       	sbi	0x1c, 2	; 28
 2ce:	e1 9a       	sbi	0x1c, 1	; 28
 2d0:	ef e1       	ldi	r30, 0x1F	; 31
 2d2:	fe e4       	ldi	r31, 0x4E	; 78
 2d4:	31 97       	sbiw	r30, 0x01	; 1
 2d6:	f1 f7       	brne	.-4      	; 0x2d4 <EEPROM_write+0x1c>
 2d8:	00 c0       	rjmp	.+0      	; 0x2da <EEPROM_write+0x22>
 2da:	00 00       	nop
 2dc:	9e bb       	out	0x1e, r25	; 30
 2de:	1d ba       	out	0x1d, r1	; 29
 2e0:	0e c0       	rjmp	.+28     	; 0x2fe <EEPROM_write+0x46>
 2e2:	8f ef       	ldi	r24, 0xFF	; 255
 2e4:	8d bb       	out	0x1d, r24	; 29
 2e6:	e2 9a       	sbi	0x1c, 2	; 28
 2e8:	e1 9a       	sbi	0x1c, 1	; 28
 2ea:	ef e1       	ldi	r30, 0x1F	; 31
 2ec:	fe e4       	ldi	r31, 0x4E	; 78
 2ee:	31 97       	sbiw	r30, 0x01	; 1
 2f0:	f1 f7       	brne	.-4      	; 0x2ee <EEPROM_write+0x36>
 2f2:	00 c0       	rjmp	.+0      	; 0x2f4 <EEPROM_write+0x3c>
 2f4:	00 00       	nop
 2f6:	9e bb       	out	0x1e, r25	; 30
 2f8:	6f 5f       	subi	r22, 0xFF	; 255
 2fa:	71 09       	sbc	r23, r1
 2fc:	6d bb       	out	0x1d, r22	; 29
 2fe:	e2 9a       	sbi	0x1c, 2	; 28
 300:	e1 9a       	sbi	0x1c, 1	; 28
 302:	8f e1       	ldi	r24, 0x1F	; 31
 304:	9e e4       	ldi	r25, 0x4E	; 78
 306:	01 97       	sbiw	r24, 0x01	; 1
 308:	f1 f7       	brne	.-4      	; 0x306 <EEPROM_write+0x4e>
 30a:	00 c0       	rjmp	.+0      	; 0x30c <EEPROM_write+0x54>
 30c:	00 00       	nop
 30e:	08 95       	ret

00000310 <EEPROM_read>:
 310:	e1 99       	sbic	0x1c, 1	; 28
 312:	fe cf       	rjmp	.-4      	; 0x310 <EEPROM_read>
 314:	8e bb       	out	0x1e, r24	; 30
 316:	e0 9a       	sbi	0x1c, 0	; 28
 318:	9d b3       	in	r25, 0x1d	; 29
 31a:	99 23       	and	r25, r25
 31c:	69 f0       	breq	.+26     	; 0x338 <EEPROM_read+0x28>
 31e:	2d b3       	in	r18, 0x1d	; 29
 320:	30 e0       	ldi	r19, 0x00	; 0
 322:	e1 99       	sbic	0x1c, 1	; 28
 324:	fe cf       	rjmp	.-4      	; 0x322 <EEPROM_read+0x12>
 326:	8f 5f       	subi	r24, 0xFF	; 255
 328:	8e bb       	out	0x1e, r24	; 30
 32a:	e0 9a       	sbi	0x1c, 0	; 28
 32c:	8d b3       	in	r24, 0x1d	; 29
 32e:	a9 01       	movw	r20, r18
 330:	48 0f       	add	r20, r24
 332:	51 1d       	adc	r21, r1
 334:	ca 01       	movw	r24, r20
 336:	08 95       	ret
 338:	80 e0       	ldi	r24, 0x00	; 0
 33a:	90 e0       	ldi	r25, 0x00	; 0
 33c:	08 95       	ret

0000033e <KeyPad_Init>:
 33e:	41 e0       	ldi	r20, 0x01	; 1
 340:	60 e0       	ldi	r22, 0x00	; 0
 342:	81 e0       	ldi	r24, 0x01	; 1
 344:	0e 94 49 00 	call	0x92	; 0x92 <DIO_SetPinDir>
 348:	41 e0       	ldi	r20, 0x01	; 1
 34a:	61 e0       	ldi	r22, 0x01	; 1
 34c:	81 e0       	ldi	r24, 0x01	; 1
 34e:	0e 94 49 00 	call	0x92	; 0x92 <DIO_SetPinDir>
 352:	41 e0       	ldi	r20, 0x01	; 1
 354:	62 e0       	ldi	r22, 0x02	; 2
 356:	81 e0       	ldi	r24, 0x01	; 1
 358:	0e 94 49 00 	call	0x92	; 0x92 <DIO_SetPinDir>
 35c:	40 e0       	ldi	r20, 0x00	; 0
 35e:	64 e0       	ldi	r22, 0x04	; 4
 360:	81 e0       	ldi	r24, 0x01	; 1
 362:	0e 94 49 00 	call	0x92	; 0x92 <DIO_SetPinDir>
 366:	40 e0       	ldi	r20, 0x00	; 0
 368:	65 e0       	ldi	r22, 0x05	; 5
 36a:	81 e0       	ldi	r24, 0x01	; 1
 36c:	0e 94 49 00 	call	0x92	; 0x92 <DIO_SetPinDir>
 370:	40 e0       	ldi	r20, 0x00	; 0
 372:	66 e0       	ldi	r22, 0x06	; 6
 374:	81 e0       	ldi	r24, 0x01	; 1
 376:	0e 94 49 00 	call	0x92	; 0x92 <DIO_SetPinDir>
 37a:	40 e0       	ldi	r20, 0x00	; 0
 37c:	67 e0       	ldi	r22, 0x07	; 7
 37e:	81 e0       	ldi	r24, 0x01	; 1
 380:	0e 94 49 00 	call	0x92	; 0x92 <DIO_SetPinDir>
 384:	64 e0       	ldi	r22, 0x04	; 4
 386:	81 e0       	ldi	r24, 0x01	; 1
 388:	0e 94 2c 01 	call	0x258	; 0x258 <DIO_SetPullUp>
 38c:	65 e0       	ldi	r22, 0x05	; 5
 38e:	81 e0       	ldi	r24, 0x01	; 1
 390:	0e 94 2c 01 	call	0x258	; 0x258 <DIO_SetPullUp>
 394:	66 e0       	ldi	r22, 0x06	; 6
 396:	81 e0       	ldi	r24, 0x01	; 1
 398:	0e 94 2c 01 	call	0x258	; 0x258 <DIO_SetPullUp>
 39c:	67 e0       	ldi	r22, 0x07	; 7
 39e:	81 e0       	ldi	r24, 0x01	; 1
 3a0:	0e 94 2c 01 	call	0x258	; 0x258 <DIO_SetPullUp>
 3a4:	41 e0       	ldi	r20, 0x01	; 1
 3a6:	60 e0       	ldi	r22, 0x00	; 0
 3a8:	81 e0       	ldi	r24, 0x01	; 1
 3aa:	0e 94 ae 00 	call	0x15c	; 0x15c <DIO_WritePin>
 3ae:	41 e0       	ldi	r20, 0x01	; 1
 3b0:	61 e0       	ldi	r22, 0x01	; 1
 3b2:	81 e0       	ldi	r24, 0x01	; 1
 3b4:	0e 94 ae 00 	call	0x15c	; 0x15c <DIO_WritePin>
 3b8:	41 e0       	ldi	r20, 0x01	; 1
 3ba:	62 e0       	ldi	r22, 0x02	; 2
 3bc:	81 e0       	ldi	r24, 0x01	; 1
 3be:	0c 94 ae 00 	jmp	0x15c	; 0x15c <DIO_WritePin>

000003c2 <KeyPad_GetValue>:
 3c2:	bf 92       	push	r11
 3c4:	cf 92       	push	r12
 3c6:	df 92       	push	r13
 3c8:	ef 92       	push	r14
 3ca:	ff 92       	push	r15
 3cc:	0f 93       	push	r16
 3ce:	1f 93       	push	r17
 3d0:	cf 93       	push	r28
 3d2:	df 93       	push	r29
 3d4:	1f 92       	push	r1
 3d6:	cd b7       	in	r28, 0x3d	; 61
 3d8:	de b7       	in	r29, 0x3e	; 62
 3da:	19 82       	std	Y+1, r1	; 0x01
 3dc:	86 ea       	ldi	r24, 0xA6	; 166
 3de:	e8 2e       	mov	r14, r24
 3e0:	80 e0       	ldi	r24, 0x00	; 0
 3e2:	f8 2e       	mov	r15, r24
 3e4:	b1 2c       	mov	r11, r1
 3e6:	10 e0       	ldi	r17, 0x00	; 0
 3e8:	40 e0       	ldi	r20, 0x00	; 0
 3ea:	61 2f       	mov	r22, r17
 3ec:	81 e0       	ldi	r24, 0x01	; 1
 3ee:	0e 94 ae 00 	call	0x15c	; 0x15c <DIO_WritePin>
 3f2:	67 01       	movw	r12, r14
 3f4:	04 e0       	ldi	r16, 0x04	; 4
 3f6:	ae 01       	movw	r20, r28
 3f8:	4f 5f       	subi	r20, 0xFF	; 255
 3fa:	5f 4f       	sbci	r21, 0xFF	; 255
 3fc:	60 2f       	mov	r22, r16
 3fe:	81 e0       	ldi	r24, 0x01	; 1
 400:	0e 94 13 01 	call	0x226	; 0x226 <DIO_ReadPin>
 404:	89 81       	ldd	r24, Y+1	; 0x01
 406:	81 11       	cpse	r24, r1
 408:	13 c0       	rjmp	.+38     	; 0x430 <__LOCK_REGION_LENGTH__+0x30>
 40a:	f6 01       	movw	r30, r12
 40c:	b0 80       	ld	r11, Z
 40e:	89 81       	ldd	r24, Y+1	; 0x01
 410:	81 11       	cpse	r24, r1
 412:	08 c0       	rjmp	.+16     	; 0x424 <__LOCK_REGION_LENGTH__+0x24>
 414:	ae 01       	movw	r20, r28
 416:	4f 5f       	subi	r20, 0xFF	; 255
 418:	5f 4f       	sbci	r21, 0xFF	; 255
 41a:	60 2f       	mov	r22, r16
 41c:	81 e0       	ldi	r24, 0x01	; 1
 41e:	0e 94 13 01 	call	0x226	; 0x226 <DIO_ReadPin>
 422:	f5 cf       	rjmp	.-22     	; 0x40e <__LOCK_REGION_LENGTH__+0xe>
 424:	8f e1       	ldi	r24, 0x1F	; 31
 426:	9e e4       	ldi	r25, 0x4E	; 78
 428:	01 97       	sbiw	r24, 0x01	; 1
 42a:	f1 f7       	brne	.-4      	; 0x428 <__LOCK_REGION_LENGTH__+0x28>
 42c:	00 c0       	rjmp	.+0      	; 0x42e <__LOCK_REGION_LENGTH__+0x2e>
 42e:	00 00       	nop
 430:	0f 5f       	subi	r16, 0xFF	; 255
 432:	93 e0       	ldi	r25, 0x03	; 3
 434:	c9 0e       	add	r12, r25
 436:	d1 1c       	adc	r13, r1
 438:	08 30       	cpi	r16, 0x08	; 8
 43a:	e9 f6       	brne	.-70     	; 0x3f6 <KeyPad_GetValue+0x34>
 43c:	41 e0       	ldi	r20, 0x01	; 1
 43e:	61 2f       	mov	r22, r17
 440:	81 e0       	ldi	r24, 0x01	; 1
 442:	0e 94 ae 00 	call	0x15c	; 0x15c <DIO_WritePin>
 446:	1f 5f       	subi	r17, 0xFF	; 255
 448:	ef ef       	ldi	r30, 0xFF	; 255
 44a:	ee 1a       	sub	r14, r30
 44c:	fe 0a       	sbc	r15, r30
 44e:	13 30       	cpi	r17, 0x03	; 3
 450:	59 f6       	brne	.-106    	; 0x3e8 <KeyPad_GetValue+0x26>
 452:	8b 2d       	mov	r24, r11
 454:	0f 90       	pop	r0
 456:	df 91       	pop	r29
 458:	cf 91       	pop	r28
 45a:	1f 91       	pop	r17
 45c:	0f 91       	pop	r16
 45e:	ff 90       	pop	r15
 460:	ef 90       	pop	r14
 462:	df 90       	pop	r13
 464:	cf 90       	pop	r12
 466:	bf 90       	pop	r11
 468:	08 95       	ret

0000046a <LCD_WriteCommand>:
 46a:	cf 93       	push	r28
 46c:	c8 2f       	mov	r28, r24
 46e:	40 e0       	ldi	r20, 0x00	; 0
 470:	61 e0       	ldi	r22, 0x01	; 1
 472:	80 e0       	ldi	r24, 0x00	; 0
 474:	0e 94 ae 00 	call	0x15c	; 0x15c <DIO_WritePin>
 478:	40 e0       	ldi	r20, 0x00	; 0
 47a:	62 e0       	ldi	r22, 0x02	; 2
 47c:	80 e0       	ldi	r24, 0x00	; 0
 47e:	0e 94 ae 00 	call	0x15c	; 0x15c <DIO_WritePin>
 482:	40 e0       	ldi	r20, 0x00	; 0
 484:	63 e0       	ldi	r22, 0x03	; 3
 486:	80 e0       	ldi	r24, 0x00	; 0
 488:	0e 94 ae 00 	call	0x15c	; 0x15c <DIO_WritePin>
 48c:	85 b3       	in	r24, 0x15	; 21
 48e:	9c 2f       	mov	r25, r28
 490:	90 7f       	andi	r25, 0xF0	; 240
 492:	8f 70       	andi	r24, 0x0F	; 15
 494:	89 2b       	or	r24, r25
 496:	85 bb       	out	0x15, r24	; 21
 498:	41 e0       	ldi	r20, 0x01	; 1
 49a:	63 e0       	ldi	r22, 0x03	; 3
 49c:	80 e0       	ldi	r24, 0x00	; 0
 49e:	0e 94 ae 00 	call	0x15c	; 0x15c <DIO_WritePin>
 4a2:	8f e9       	ldi	r24, 0x9F	; 159
 4a4:	9f e0       	ldi	r25, 0x0F	; 15
 4a6:	01 97       	sbiw	r24, 0x01	; 1
 4a8:	f1 f7       	brne	.-4      	; 0x4a6 <LCD_WriteCommand+0x3c>
 4aa:	00 c0       	rjmp	.+0      	; 0x4ac <LCD_WriteCommand+0x42>
 4ac:	00 00       	nop
 4ae:	40 e0       	ldi	r20, 0x00	; 0
 4b0:	63 e0       	ldi	r22, 0x03	; 3
 4b2:	80 e0       	ldi	r24, 0x00	; 0
 4b4:	0e 94 ae 00 	call	0x15c	; 0x15c <DIO_WritePin>
 4b8:	25 b3       	in	r18, 0x15	; 21
 4ba:	30 e1       	ldi	r19, 0x10	; 16
 4bc:	c3 9f       	mul	r28, r19
 4be:	c0 01       	movw	r24, r0
 4c0:	11 24       	eor	r1, r1
 4c2:	92 2f       	mov	r25, r18
 4c4:	9f 70       	andi	r25, 0x0F	; 15
 4c6:	89 2b       	or	r24, r25
 4c8:	85 bb       	out	0x15, r24	; 21
 4ca:	41 e0       	ldi	r20, 0x01	; 1
 4cc:	63 e0       	ldi	r22, 0x03	; 3
 4ce:	80 e0       	ldi	r24, 0x00	; 0
 4d0:	0e 94 ae 00 	call	0x15c	; 0x15c <DIO_WritePin>
 4d4:	8f e9       	ldi	r24, 0x9F	; 159
 4d6:	9f e0       	ldi	r25, 0x0F	; 15
 4d8:	01 97       	sbiw	r24, 0x01	; 1
 4da:	f1 f7       	brne	.-4      	; 0x4d8 <LCD_WriteCommand+0x6e>
 4dc:	00 c0       	rjmp	.+0      	; 0x4de <LCD_WriteCommand+0x74>
 4de:	00 00       	nop
 4e0:	40 e0       	ldi	r20, 0x00	; 0
 4e2:	63 e0       	ldi	r22, 0x03	; 3
 4e4:	80 e0       	ldi	r24, 0x00	; 0
 4e6:	0e 94 ae 00 	call	0x15c	; 0x15c <DIO_WritePin>
 4ea:	8f e1       	ldi	r24, 0x1F	; 31
 4ec:	9e e4       	ldi	r25, 0x4E	; 78
 4ee:	01 97       	sbiw	r24, 0x01	; 1
 4f0:	f1 f7       	brne	.-4      	; 0x4ee <LCD_WriteCommand+0x84>
 4f2:	00 c0       	rjmp	.+0      	; 0x4f4 <LCD_WriteCommand+0x8a>
 4f4:	00 00       	nop
 4f6:	cf 91       	pop	r28
 4f8:	08 95       	ret

000004fa <LCD_Init>:
 4fa:	41 e0       	ldi	r20, 0x01	; 1
 4fc:	61 e0       	ldi	r22, 0x01	; 1
 4fe:	80 e0       	ldi	r24, 0x00	; 0
 500:	0e 94 49 00 	call	0x92	; 0x92 <DIO_SetPinDir>
 504:	41 e0       	ldi	r20, 0x01	; 1
 506:	62 e0       	ldi	r22, 0x02	; 2
 508:	80 e0       	ldi	r24, 0x00	; 0
 50a:	0e 94 49 00 	call	0x92	; 0x92 <DIO_SetPinDir>
 50e:	41 e0       	ldi	r20, 0x01	; 1
 510:	63 e0       	ldi	r22, 0x03	; 3
 512:	80 e0       	ldi	r24, 0x00	; 0
 514:	0e 94 49 00 	call	0x92	; 0x92 <DIO_SetPinDir>
 518:	41 e0       	ldi	r20, 0x01	; 1
 51a:	64 e0       	ldi	r22, 0x04	; 4
 51c:	82 e0       	ldi	r24, 0x02	; 2
 51e:	0e 94 49 00 	call	0x92	; 0x92 <DIO_SetPinDir>
 522:	41 e0       	ldi	r20, 0x01	; 1
 524:	65 e0       	ldi	r22, 0x05	; 5
 526:	82 e0       	ldi	r24, 0x02	; 2
 528:	0e 94 49 00 	call	0x92	; 0x92 <DIO_SetPinDir>
 52c:	41 e0       	ldi	r20, 0x01	; 1
 52e:	66 e0       	ldi	r22, 0x06	; 6
 530:	82 e0       	ldi	r24, 0x02	; 2
 532:	0e 94 49 00 	call	0x92	; 0x92 <DIO_SetPinDir>
 536:	41 e0       	ldi	r20, 0x01	; 1
 538:	67 e0       	ldi	r22, 0x07	; 7
 53a:	82 e0       	ldi	r24, 0x02	; 2
 53c:	0e 94 49 00 	call	0x92	; 0x92 <DIO_SetPinDir>
 540:	2f ef       	ldi	r18, 0xFF	; 255
 542:	81 ee       	ldi	r24, 0xE1	; 225
 544:	94 e0       	ldi	r25, 0x04	; 4
 546:	21 50       	subi	r18, 0x01	; 1
 548:	80 40       	sbci	r24, 0x00	; 0
 54a:	90 40       	sbci	r25, 0x00	; 0
 54c:	e1 f7       	brne	.-8      	; 0x546 <LCD_Init+0x4c>
 54e:	00 c0       	rjmp	.+0      	; 0x550 <LCD_Init+0x56>
 550:	00 00       	nop
 552:	83 e3       	ldi	r24, 0x33	; 51
 554:	0e 94 35 02 	call	0x46a	; 0x46a <LCD_WriteCommand>
 558:	82 e3       	ldi	r24, 0x32	; 50
 55a:	0e 94 35 02 	call	0x46a	; 0x46a <LCD_WriteCommand>
 55e:	88 e2       	ldi	r24, 0x28	; 40
 560:	0e 94 35 02 	call	0x46a	; 0x46a <LCD_WriteCommand>
 564:	8c e0       	ldi	r24, 0x0C	; 12
 566:	0e 94 35 02 	call	0x46a	; 0x46a <LCD_WriteCommand>
 56a:	81 e0       	ldi	r24, 0x01	; 1
 56c:	0e 94 35 02 	call	0x46a	; 0x46a <LCD_WriteCommand>
 570:	86 e0       	ldi	r24, 0x06	; 6
 572:	0e 94 35 02 	call	0x46a	; 0x46a <LCD_WriteCommand>
 576:	82 e0       	ldi	r24, 0x02	; 2
 578:	0c 94 35 02 	jmp	0x46a	; 0x46a <LCD_WriteCommand>

0000057c <LCD_WriteChar>:
 57c:	cf 93       	push	r28
 57e:	c8 2f       	mov	r28, r24
 580:	41 e0       	ldi	r20, 0x01	; 1
 582:	61 e0       	ldi	r22, 0x01	; 1
 584:	80 e0       	ldi	r24, 0x00	; 0
 586:	0e 94 ae 00 	call	0x15c	; 0x15c <DIO_WritePin>
 58a:	40 e0       	ldi	r20, 0x00	; 0
 58c:	62 e0       	ldi	r22, 0x02	; 2
 58e:	80 e0       	ldi	r24, 0x00	; 0
 590:	0e 94 ae 00 	call	0x15c	; 0x15c <DIO_WritePin>
 594:	40 e0       	ldi	r20, 0x00	; 0
 596:	63 e0       	ldi	r22, 0x03	; 3
 598:	80 e0       	ldi	r24, 0x00	; 0
 59a:	0e 94 ae 00 	call	0x15c	; 0x15c <DIO_WritePin>
 59e:	8c 2f       	mov	r24, r28
 5a0:	80 7f       	andi	r24, 0xF0	; 240
 5a2:	85 bb       	out	0x15, r24	; 21
 5a4:	41 e0       	ldi	r20, 0x01	; 1
 5a6:	63 e0       	ldi	r22, 0x03	; 3
 5a8:	80 e0       	ldi	r24, 0x00	; 0
 5aa:	0e 94 ae 00 	call	0x15c	; 0x15c <DIO_WritePin>
 5ae:	8f e9       	ldi	r24, 0x9F	; 159
 5b0:	9f e0       	ldi	r25, 0x0F	; 15
 5b2:	01 97       	sbiw	r24, 0x01	; 1
 5b4:	f1 f7       	brne	.-4      	; 0x5b2 <LCD_WriteChar+0x36>
 5b6:	00 c0       	rjmp	.+0      	; 0x5b8 <LCD_WriteChar+0x3c>
 5b8:	00 00       	nop
 5ba:	40 e0       	ldi	r20, 0x00	; 0
 5bc:	63 e0       	ldi	r22, 0x03	; 3
 5be:	80 e0       	ldi	r24, 0x00	; 0
 5c0:	0e 94 ae 00 	call	0x15c	; 0x15c <DIO_WritePin>
 5c4:	c2 95       	swap	r28
 5c6:	c0 7f       	andi	r28, 0xF0	; 240
 5c8:	c5 bb       	out	0x15, r28	; 21
 5ca:	41 e0       	ldi	r20, 0x01	; 1
 5cc:	63 e0       	ldi	r22, 0x03	; 3
 5ce:	80 e0       	ldi	r24, 0x00	; 0
 5d0:	0e 94 ae 00 	call	0x15c	; 0x15c <DIO_WritePin>
 5d4:	8f e9       	ldi	r24, 0x9F	; 159
 5d6:	9f e0       	ldi	r25, 0x0F	; 15
 5d8:	01 97       	sbiw	r24, 0x01	; 1
 5da:	f1 f7       	brne	.-4      	; 0x5d8 <LCD_WriteChar+0x5c>
 5dc:	00 c0       	rjmp	.+0      	; 0x5de <LCD_WriteChar+0x62>
 5de:	00 00       	nop
 5e0:	40 e0       	ldi	r20, 0x00	; 0
 5e2:	63 e0       	ldi	r22, 0x03	; 3
 5e4:	80 e0       	ldi	r24, 0x00	; 0
 5e6:	0e 94 ae 00 	call	0x15c	; 0x15c <DIO_WritePin>
 5ea:	8f e1       	ldi	r24, 0x1F	; 31
 5ec:	9e e4       	ldi	r25, 0x4E	; 78
 5ee:	01 97       	sbiw	r24, 0x01	; 1
 5f0:	f1 f7       	brne	.-4      	; 0x5ee <LCD_WriteChar+0x72>
 5f2:	00 c0       	rjmp	.+0      	; 0x5f4 <LCD_WriteChar+0x78>
 5f4:	00 00       	nop
 5f6:	cf 91       	pop	r28
 5f8:	08 95       	ret

000005fa <LCD_WriteString>:
 5fa:	0f 93       	push	r16
 5fc:	1f 93       	push	r17
 5fe:	cf 93       	push	r28
 600:	8c 01       	movw	r16, r24
 602:	c0 e0       	ldi	r28, 0x00	; 0
 604:	f8 01       	movw	r30, r16
 606:	ec 0f       	add	r30, r28
 608:	f1 1d       	adc	r31, r1
 60a:	80 81       	ld	r24, Z
 60c:	88 23       	and	r24, r24
 60e:	21 f0       	breq	.+8      	; 0x618 <LCD_WriteString+0x1e>
 610:	0e 94 be 02 	call	0x57c	; 0x57c <LCD_WriteChar>
 614:	cf 5f       	subi	r28, 0xFF	; 255
 616:	f6 cf       	rjmp	.-20     	; 0x604 <LCD_WriteString+0xa>
 618:	cf 91       	pop	r28
 61a:	1f 91       	pop	r17
 61c:	0f 91       	pop	r16
 61e:	08 95       	ret

00000620 <LCD_GoTo>:
 620:	cf 93       	push	r28
 622:	df 93       	push	r29
 624:	00 d0       	rcall	.+0      	; 0x626 <LCD_GoTo+0x6>
 626:	cd b7       	in	r28, 0x3d	; 61
 628:	de b7       	in	r29, 0x3e	; 62
 62a:	90 e8       	ldi	r25, 0x80	; 128
 62c:	99 83       	std	Y+1, r25	; 0x01
 62e:	90 ec       	ldi	r25, 0xC0	; 192
 630:	9a 83       	std	Y+2, r25	; 0x02
 632:	fe 01       	movw	r30, r28
 634:	e8 0f       	add	r30, r24
 636:	f1 1d       	adc	r31, r1
 638:	81 81       	ldd	r24, Z+1	; 0x01
 63a:	86 0f       	add	r24, r22
 63c:	0f 90       	pop	r0
 63e:	0f 90       	pop	r0
 640:	df 91       	pop	r29
 642:	cf 91       	pop	r28
 644:	0c 94 35 02 	jmp	0x46a	; 0x46a <LCD_WriteCommand>

00000648 <LCD_Clear>:
 648:	81 e0       	ldi	r24, 0x01	; 1
 64a:	0c 94 35 02 	jmp	0x46a	; 0x46a <LCD_WriteCommand>

0000064e <Buzzer_Trigger.part.1>:
 64e:	40 e0       	ldi	r20, 0x00	; 0
 650:	65 e0       	ldi	r22, 0x05	; 5
 652:	83 e0       	ldi	r24, 0x03	; 3
 654:	0c 94 ae 00 	jmp	0x15c	; 0x15c <DIO_WritePin>

00000658 <System_Init>:
 658:	1f 93       	push	r17
 65a:	cf 93       	push	r28
 65c:	df 93       	push	r29
 65e:	0e 94 7d 02 	call	0x4fa	; 0x4fa <LCD_Init>
 662:	0e 94 9f 01 	call	0x33e	; 0x33e <KeyPad_Init>
 666:	41 e0       	ldi	r20, 0x01	; 1
 668:	61 e0       	ldi	r22, 0x01	; 1
 66a:	83 e0       	ldi	r24, 0x03	; 3
 66c:	0e 94 49 00 	call	0x92	; 0x92 <DIO_SetPinDir>
 670:	41 e0       	ldi	r20, 0x01	; 1
 672:	65 e0       	ldi	r22, 0x05	; 5
 674:	83 e0       	ldi	r24, 0x03	; 3
 676:	0e 94 49 00 	call	0x92	; 0x92 <DIO_SetPinDir>
 67a:	40 e0       	ldi	r20, 0x00	; 0
 67c:	61 e0       	ldi	r22, 0x01	; 1
 67e:	83 e0       	ldi	r24, 0x03	; 3
 680:	0e 94 ae 00 	call	0x15c	; 0x15c <DIO_WritePin>
 684:	40 e0       	ldi	r20, 0x00	; 0
 686:	65 e0       	ldi	r22, 0x05	; 5
 688:	83 e0       	ldi	r24, 0x03	; 3
 68a:	0e 94 ae 00 	call	0x15c	; 0x15c <DIO_WritePin>
 68e:	40 e0       	ldi	r20, 0x00	; 0
 690:	62 e0       	ldi	r22, 0x02	; 2
 692:	83 e0       	ldi	r24, 0x03	; 3
 694:	0e 94 49 00 	call	0x92	; 0x92 <DIO_SetPinDir>
 698:	41 e0       	ldi	r20, 0x01	; 1
 69a:	62 e0       	ldi	r22, 0x02	; 2
 69c:	83 e0       	ldi	r24, 0x03	; 3
 69e:	0e 94 ae 00 	call	0x15c	; 0x15c <DIO_WritePin>
 6a2:	40 e0       	ldi	r20, 0x00	; 0
 6a4:	63 e0       	ldi	r22, 0x03	; 3
 6a6:	83 e0       	ldi	r24, 0x03	; 3
 6a8:	0e 94 49 00 	call	0x92	; 0x92 <DIO_SetPinDir>
 6ac:	41 e0       	ldi	r20, 0x01	; 1
 6ae:	63 e0       	ldi	r22, 0x03	; 3
 6b0:	83 e0       	ldi	r24, 0x03	; 3
 6b2:	0e 94 ae 00 	call	0x15c	; 0x15c <DIO_WritePin>
 6b6:	8b e0       	ldi	r24, 0x0B	; 11
 6b8:	85 bf       	out	0x35, r24	; 53
 6ba:	80 ec       	ldi	r24, 0xC0	; 192
 6bc:	8b bf       	out	0x3b, r24	; 59
 6be:	8f b7       	in	r24, 0x3f	; 63
 6c0:	80 68       	ori	r24, 0x80	; 128
 6c2:	8f bf       	out	0x3f, r24	; 63
 6c4:	c0 e0       	ldi	r28, 0x00	; 0
 6c6:	d0 e0       	ldi	r29, 0x00	; 0
 6c8:	11 e0       	ldi	r17, 0x01	; 1
 6ca:	ce 01       	movw	r24, r28
 6cc:	0e 94 88 01 	call	0x310	; 0x310 <EEPROM_read>
 6d0:	8f 3f       	cpi	r24, 0xFF	; 255
 6d2:	91 05       	cpc	r25, r1
 6d4:	09 f0       	breq	.+2      	; 0x6d8 <System_Init+0x80>
 6d6:	10 e0       	ldi	r17, 0x00	; 0
 6d8:	21 96       	adiw	r28, 0x01	; 1
 6da:	c1 15       	cp	r28, r1
 6dc:	21 e0       	ldi	r18, 0x01	; 1
 6de:	d2 07       	cpc	r29, r18
 6e0:	a1 f7       	brne	.-24     	; 0x6ca <System_Init+0x72>
 6e2:	11 30       	cpi	r17, 0x01	; 1
 6e4:	29 f5       	brne	.+74     	; 0x730 <System_Init+0xd8>
 6e6:	82 eb       	ldi	r24, 0xB2	; 178
 6e8:	90 e0       	ldi	r25, 0x00	; 0
 6ea:	0e 94 fd 02 	call	0x5fa	; 0x5fa <LCD_WriteString>
 6ee:	c0 e6       	ldi	r28, 0x60	; 96
 6f0:	d0 e0       	ldi	r29, 0x00	; 0
 6f2:	6a 85       	ldd	r22, Y+10	; 0x0a
 6f4:	7b 85       	ldd	r23, Y+11	; 0x0b
 6f6:	cb 01       	movw	r24, r22
 6f8:	84 56       	subi	r24, 0x64	; 100
 6fa:	90 4c       	sbci	r25, 0xC0	; 192
 6fc:	88 0f       	add	r24, r24
 6fe:	99 1f       	adc	r25, r25
 700:	88 0f       	add	r24, r24
 702:	99 1f       	adc	r25, r25
 704:	0e 94 5c 01 	call	0x2b8	; 0x2b8 <EEPROM_write>
 708:	6c 85       	ldd	r22, Y+12	; 0x0c
 70a:	7d 85       	ldd	r23, Y+13	; 0x0d
 70c:	8a 85       	ldd	r24, Y+10	; 0x0a
 70e:	9b 85       	ldd	r25, Y+11	; 0x0b
 710:	88 0f       	add	r24, r24
 712:	99 1f       	adc	r25, r25
 714:	88 0f       	add	r24, r24
 716:	99 1f       	adc	r25, r25
 718:	8e 58       	subi	r24, 0x8E	; 142
 71a:	91 40       	sbci	r25, 0x01	; 1
 71c:	0e 94 5c 01 	call	0x2b8	; 0x2b8 <EEPROM_write>
 720:	2e 96       	adiw	r28, 0x0e	; 14
 722:	80 e0       	ldi	r24, 0x00	; 0
 724:	c6 3a       	cpi	r28, 0xA6	; 166
 726:	d8 07       	cpc	r29, r24
 728:	21 f7       	brne	.-56     	; 0x6f2 <System_Init+0x9a>
 72a:	0e 94 24 03 	call	0x648	; 0x648 <LCD_Clear>
 72e:	04 c0       	rjmp	.+8      	; 0x738 <System_Init+0xe0>
 730:	82 ec       	ldi	r24, 0xC2	; 194
 732:	90 e0       	ldi	r25, 0x00	; 0
 734:	0e 94 fd 02 	call	0x5fa	; 0x5fa <LCD_WriteString>
 738:	9f ef       	ldi	r25, 0xFF	; 255
 73a:	29 e6       	ldi	r18, 0x69	; 105
 73c:	88 e1       	ldi	r24, 0x18	; 24
 73e:	91 50       	subi	r25, 0x01	; 1
 740:	20 40       	sbci	r18, 0x00	; 0
 742:	80 40       	sbci	r24, 0x00	; 0
 744:	e1 f7       	brne	.-8      	; 0x73e <System_Init+0xe6>
 746:	00 c0       	rjmp	.+0      	; 0x748 <System_Init+0xf0>
 748:	00 00       	nop
 74a:	df 91       	pop	r29
 74c:	cf 91       	pop	r28
 74e:	1f 91       	pop	r17
 750:	0c 94 24 03 	jmp	0x648	; 0x648 <LCD_Clear>

00000754 <charArrayToInt>:
 754:	fc 01       	movw	r30, r24
 756:	20 81       	ld	r18, Z
 758:	31 81       	ldd	r19, Z+1	; 0x01
 75a:	44 e6       	ldi	r20, 0x64	; 100
 75c:	42 9f       	mul	r20, r18
 75e:	c0 01       	movw	r24, r0
 760:	43 9f       	mul	r20, r19
 762:	90 0d       	add	r25, r0
 764:	11 24       	eor	r1, r1
 766:	42 81       	ldd	r20, Z+2	; 0x02
 768:	53 81       	ldd	r21, Z+3	; 0x03
 76a:	6a e0       	ldi	r22, 0x0A	; 10
 76c:	64 9f       	mul	r22, r20
 76e:	90 01       	movw	r18, r0
 770:	65 9f       	mul	r22, r21
 772:	30 0d       	add	r19, r0
 774:	11 24       	eor	r1, r1
 776:	28 0f       	add	r18, r24
 778:	39 1f       	adc	r19, r25
 77a:	84 81       	ldd	r24, Z+4	; 0x04
 77c:	95 81       	ldd	r25, Z+5	; 0x05
 77e:	82 0f       	add	r24, r18
 780:	93 1f       	adc	r25, r19
 782:	08 95       	ret

00000784 <Key_Pad_enter>:
 784:	ef 92       	push	r14
 786:	ff 92       	push	r15
 788:	1f 93       	push	r17
 78a:	cf 93       	push	r28
 78c:	df 93       	push	r29
 78e:	7c 01       	movw	r14, r24
 790:	10 e0       	ldi	r17, 0x00	; 0
 792:	0e 94 e1 01 	call	0x3c2	; 0x3c2 <KeyPad_GetValue>
 796:	c8 2f       	mov	r28, r24
 798:	d0 e0       	ldi	r29, 0x00	; 0
 79a:	20 97       	sbiw	r28, 0x00	; 0
 79c:	d1 f3       	breq	.-12     	; 0x792 <Key_Pad_enter+0xe>
 79e:	12 30       	cpi	r17, 0x02	; 2
 7a0:	e0 f4       	brcc	.+56     	; 0x7da <Key_Pad_enter+0x56>
 7a2:	90 91 a0 01 	lds	r25, 0x01A0	; 0x8001a0 <__data_end>
 7a6:	99 23       	and	r25, r25
 7a8:	19 f0       	breq	.+6      	; 0x7b0 <Key_Pad_enter+0x2c>
 7aa:	91 30       	cpi	r25, 0x01	; 1
 7ac:	19 f4       	brne	.+6      	; 0x7b4 <Key_Pad_enter+0x30>
 7ae:	8a e2       	ldi	r24, 0x2A	; 42
 7b0:	0e 94 be 02 	call	0x57c	; 0x57c <LCD_WriteChar>
 7b4:	f7 01       	movw	r30, r14
 7b6:	e1 0f       	add	r30, r17
 7b8:	f1 1d       	adc	r31, r1
 7ba:	e1 0f       	add	r30, r17
 7bc:	f1 1d       	adc	r31, r1
 7be:	e0 97       	sbiw	r28, 0x30	; 48
 7c0:	d1 83       	std	Z+1, r29	; 0x01
 7c2:	c0 83       	st	Z, r28
 7c4:	1f 5f       	subi	r17, 0xFF	; 255
 7c6:	2f e7       	ldi	r18, 0x7F	; 127
 7c8:	8a e1       	ldi	r24, 0x1A	; 26
 7ca:	96 e0       	ldi	r25, 0x06	; 6
 7cc:	21 50       	subi	r18, 0x01	; 1
 7ce:	80 40       	sbci	r24, 0x00	; 0
 7d0:	90 40       	sbci	r25, 0x00	; 0
 7d2:	e1 f7       	brne	.-8      	; 0x7cc <Key_Pad_enter+0x48>
 7d4:	00 c0       	rjmp	.+0      	; 0x7d6 <Key_Pad_enter+0x52>
 7d6:	00 00       	nop
 7d8:	dc cf       	rjmp	.-72     	; 0x792 <Key_Pad_enter+0xe>
 7da:	12 30       	cpi	r17, 0x02	; 2
 7dc:	d1 f6       	brne	.-76     	; 0x792 <Key_Pad_enter+0xe>
 7de:	e0 97       	sbiw	r28, 0x30	; 48
 7e0:	f7 01       	movw	r30, r14
 7e2:	d5 83       	std	Z+5, r29	; 0x05
 7e4:	c4 83       	std	Z+4, r28	; 0x04
 7e6:	90 91 a0 01 	lds	r25, 0x01A0	; 0x8001a0 <__data_end>
 7ea:	99 23       	and	r25, r25
 7ec:	19 f0       	breq	.+6      	; 0x7f4 <Key_Pad_enter+0x70>
 7ee:	91 30       	cpi	r25, 0x01	; 1
 7f0:	19 f4       	brne	.+6      	; 0x7f8 <Key_Pad_enter+0x74>
 7f2:	8a e2       	ldi	r24, 0x2A	; 42
 7f4:	0e 94 be 02 	call	0x57c	; 0x57c <LCD_WriteChar>
 7f8:	ff e7       	ldi	r31, 0x7F	; 127
 7fa:	2a e1       	ldi	r18, 0x1A	; 26
 7fc:	86 e0       	ldi	r24, 0x06	; 6
 7fe:	f1 50       	subi	r31, 0x01	; 1
 800:	20 40       	sbci	r18, 0x00	; 0
 802:	80 40       	sbci	r24, 0x00	; 0
 804:	e1 f7       	brne	.-8      	; 0x7fe <Key_Pad_enter+0x7a>
 806:	00 c0       	rjmp	.+0      	; 0x808 <Key_Pad_enter+0x84>
 808:	00 00       	nop
 80a:	c7 01       	movw	r24, r14
 80c:	df 91       	pop	r29
 80e:	cf 91       	pop	r28
 810:	1f 91       	pop	r17
 812:	ff 90       	pop	r15
 814:	ef 90       	pop	r14
 816:	0c 94 aa 03 	jmp	0x754	; 0x754 <charArrayToInt>

0000081a <Check_ID>:
 81a:	ef 92       	push	r14
 81c:	ff 92       	push	r15
 81e:	1f 93       	push	r17
 820:	cf 93       	push	r28
 822:	df 93       	push	r29
 824:	7c 01       	movw	r14, r24
 826:	c0 e0       	ldi	r28, 0x00	; 0
 828:	d0 e0       	ldi	r29, 0x00	; 0
 82a:	10 e0       	ldi	r17, 0x00	; 0
 82c:	ce 01       	movw	r24, r28
 82e:	0e 94 88 01 	call	0x310	; 0x310 <EEPROM_read>
 832:	8e 15       	cp	r24, r14
 834:	9f 05       	cpc	r25, r15
 836:	09 f4       	brne	.+2      	; 0x83a <Check_ID+0x20>
 838:	11 e0       	ldi	r17, 0x01	; 1
 83a:	21 96       	adiw	r28, 0x01	; 1
 83c:	c1 15       	cp	r28, r1
 83e:	81 e0       	ldi	r24, 0x01	; 1
 840:	d8 07       	cpc	r29, r24
 842:	a1 f7       	brne	.-24     	; 0x82c <Check_ID+0x12>
 844:	81 2f       	mov	r24, r17
 846:	df 91       	pop	r29
 848:	cf 91       	pop	r28
 84a:	1f 91       	pop	r17
 84c:	ff 90       	pop	r15
 84e:	ef 90       	pop	r14
 850:	08 95       	ret

00000852 <Check_Pass>:
 852:	cf 93       	push	r28
 854:	df 93       	push	r29
 856:	ec 01       	movw	r28, r24
 858:	cb 01       	movw	r24, r22
 85a:	88 0f       	add	r24, r24
 85c:	99 1f       	adc	r25, r25
 85e:	88 0f       	add	r24, r24
 860:	99 1f       	adc	r25, r25
 862:	8e 58       	subi	r24, 0x8E	; 142
 864:	91 40       	sbci	r25, 0x01	; 1
 866:	0e 94 88 01 	call	0x310	; 0x310 <EEPROM_read>
 86a:	21 e0       	ldi	r18, 0x01	; 1
 86c:	8c 17       	cp	r24, r28
 86e:	9d 07       	cpc	r25, r29
 870:	09 f0       	breq	.+2      	; 0x874 <Check_Pass+0x22>
 872:	20 e0       	ldi	r18, 0x00	; 0
 874:	82 2f       	mov	r24, r18
 876:	df 91       	pop	r29
 878:	cf 91       	pop	r28
 87a:	08 95       	ret

0000087c <Change_Pass>:
 87c:	9b 01       	movw	r18, r22
 87e:	22 0f       	add	r18, r18
 880:	33 1f       	adc	r19, r19
 882:	22 0f       	add	r18, r18
 884:	33 1f       	adc	r19, r19
 886:	bc 01       	movw	r22, r24
 888:	c9 01       	movw	r24, r18
 88a:	8e 58       	subi	r24, 0x8E	; 142
 88c:	91 40       	sbci	r25, 0x01	; 1
 88e:	0c 94 5c 01 	jmp	0x2b8	; 0x2b8 <EEPROM_write>

00000892 <Admin_Func>:
 892:	ef 92       	push	r14
 894:	ff 92       	push	r15
 896:	0f 93       	push	r16
 898:	1f 93       	push	r17
 89a:	cf 93       	push	r28
 89c:	df 93       	push	r29
 89e:	00 d0       	rcall	.+0      	; 0x8a0 <Admin_Func+0xe>
 8a0:	1f 92       	push	r1
 8a2:	cd b7       	in	r28, 0x3d	; 61
 8a4:	de b7       	in	r29, 0x3e	; 62
 8a6:	0e 94 24 03 	call	0x648	; 0x648 <LCD_Clear>
 8aa:	88 ec       	ldi	r24, 0xC8	; 200
 8ac:	90 e0       	ldi	r25, 0x00	; 0
 8ae:	0e 94 fd 02 	call	0x5fa	; 0x5fa <LCD_WriteString>
 8b2:	2f ef       	ldi	r18, 0xFF	; 255
 8b4:	89 e6       	ldi	r24, 0x69	; 105
 8b6:	98 e1       	ldi	r25, 0x18	; 24
 8b8:	21 50       	subi	r18, 0x01	; 1
 8ba:	80 40       	sbci	r24, 0x00	; 0
 8bc:	90 40       	sbci	r25, 0x00	; 0
 8be:	e1 f7       	brne	.-8      	; 0x8b8 <Admin_Func+0x26>
 8c0:	00 c0       	rjmp	.+0      	; 0x8c2 <Admin_Func+0x30>
 8c2:	00 00       	nop
 8c4:	0e 94 24 03 	call	0x648	; 0x648 <LCD_Clear>
 8c8:	84 ed       	ldi	r24, 0xD4	; 212
 8ca:	90 e0       	ldi	r25, 0x00	; 0
 8cc:	0e 94 fd 02 	call	0x5fa	; 0x5fa <LCD_WriteString>
 8d0:	60 e0       	ldi	r22, 0x00	; 0
 8d2:	81 e0       	ldi	r24, 0x01	; 1
 8d4:	0e 94 10 03 	call	0x620	; 0x620 <LCD_GoTo>
 8d8:	ce 01       	movw	r24, r28
 8da:	01 96       	adiw	r24, 0x01	; 1
 8dc:	0e 94 c2 03 	call	0x784	; 0x784 <Key_Pad_enter>
 8e0:	8c 01       	movw	r16, r24
 8e2:	ff 24       	eor	r15, r15
 8e4:	f3 94       	inc	r15
 8e6:	f0 92 a0 01 	sts	0x01A0, r15	; 0x8001a0 <__data_end>
 8ea:	80 91 6a 00 	lds	r24, 0x006A	; 0x80006a <__DATA_REGION_ORIGIN__+0xa>
 8ee:	90 91 6b 00 	lds	r25, 0x006B	; 0x80006b <__DATA_REGION_ORIGIN__+0xb>
 8f2:	08 17       	cp	r16, r24
 8f4:	19 07       	cpc	r17, r25
 8f6:	09 f0       	breq	.+2      	; 0x8fa <Admin_Func+0x68>
 8f8:	87 c0       	rjmp	.+270    	; 0xa08 <Admin_Func+0x176>
 8fa:	0e 94 24 03 	call	0x648	; 0x648 <LCD_Clear>
 8fe:	83 ee       	ldi	r24, 0xE3	; 227
 900:	90 e0       	ldi	r25, 0x00	; 0
 902:	0e 94 fd 02 	call	0x5fa	; 0x5fa <LCD_WriteString>
 906:	60 e0       	ldi	r22, 0x00	; 0
 908:	81 e0       	ldi	r24, 0x01	; 1
 90a:	0e 94 10 03 	call	0x620	; 0x620 <LCD_GoTo>
 90e:	ce 01       	movw	r24, r28
 910:	01 96       	adiw	r24, 0x01	; 1
 912:	0e 94 c2 03 	call	0x784	; 0x784 <Key_Pad_enter>
 916:	10 92 a0 01 	sts	0x01A0, r1	; 0x8001a0 <__data_end>
 91a:	b8 01       	movw	r22, r16
 91c:	0e 94 29 04 	call	0x852	; 0x852 <Check_Pass>
 920:	88 23       	and	r24, r24
 922:	09 f4       	brne	.+2      	; 0x926 <Admin_Func+0x94>
 924:	6c c0       	rjmp	.+216    	; 0x9fe <Admin_Func+0x16c>
 926:	0e 94 24 03 	call	0x648	; 0x648 <LCD_Clear>
 92a:	82 ef       	ldi	r24, 0xF2	; 242
 92c:	90 e0       	ldi	r25, 0x00	; 0
 92e:	0e 94 fd 02 	call	0x5fa	; 0x5fa <LCD_WriteString>
 932:	60 e0       	ldi	r22, 0x00	; 0
 934:	81 e0       	ldi	r24, 0x01	; 1
 936:	0e 94 10 03 	call	0x620	; 0x620 <LCD_GoTo>
 93a:	ce 01       	movw	r24, r28
 93c:	01 96       	adiw	r24, 0x01	; 1
 93e:	0e 94 c2 03 	call	0x784	; 0x784 <Key_Pad_enter>
 942:	8c 01       	movw	r16, r24
 944:	0e 94 0d 04 	call	0x81a	; 0x81a <Check_ID>
 948:	88 23       	and	r24, r24
 94a:	09 f4       	brne	.+2      	; 0x94e <Admin_Func+0xbc>
 94c:	53 c0       	rjmp	.+166    	; 0x9f4 <Admin_Func+0x162>
 94e:	f0 92 a0 01 	sts	0x01A0, r15	; 0x8001a0 <__data_end>
 952:	0e 94 24 03 	call	0x648	; 0x648 <LCD_Clear>
 956:	8b ef       	ldi	r24, 0xFB	; 251
 958:	90 e0       	ldi	r25, 0x00	; 0
 95a:	0e 94 fd 02 	call	0x5fa	; 0x5fa <LCD_WriteString>
 95e:	60 e0       	ldi	r22, 0x00	; 0
 960:	81 e0       	ldi	r24, 0x01	; 1
 962:	0e 94 10 03 	call	0x620	; 0x620 <LCD_GoTo>
 966:	ce 01       	movw	r24, r28
 968:	01 96       	adiw	r24, 0x01	; 1
 96a:	0e 94 c2 03 	call	0x784	; 0x784 <Key_Pad_enter>
 96e:	b8 01       	movw	r22, r16
 970:	0e 94 29 04 	call	0x852	; 0x852 <Check_Pass>
 974:	88 23       	and	r24, r24
 976:	71 f1       	breq	.+92     	; 0x9d4 <Admin_Func+0x142>
 978:	0e 94 24 03 	call	0x648	; 0x648 <LCD_Clear>
 97c:	88 e0       	ldi	r24, 0x08	; 8
 97e:	91 e0       	ldi	r25, 0x01	; 1
 980:	0e 94 fd 02 	call	0x5fa	; 0x5fa <LCD_WriteString>
 984:	60 e0       	ldi	r22, 0x00	; 0
 986:	81 e0       	ldi	r24, 0x01	; 1
 988:	0e 94 10 03 	call	0x620	; 0x620 <LCD_GoTo>
 98c:	ce 01       	movw	r24, r28
 98e:	01 96       	adiw	r24, 0x01	; 1
 990:	0e 94 c2 03 	call	0x784	; 0x784 <Key_Pad_enter>
 994:	7c 01       	movw	r14, r24
 996:	0e 94 24 03 	call	0x648	; 0x648 <LCD_Clear>
 99a:	85 e1       	ldi	r24, 0x15	; 21
 99c:	91 e0       	ldi	r25, 0x01	; 1
 99e:	0e 94 fd 02 	call	0x5fa	; 0x5fa <LCD_WriteString>
 9a2:	60 e0       	ldi	r22, 0x00	; 0
 9a4:	81 e0       	ldi	r24, 0x01	; 1
 9a6:	0e 94 10 03 	call	0x620	; 0x620 <LCD_GoTo>
 9aa:	ce 01       	movw	r24, r28
 9ac:	01 96       	adiw	r24, 0x01	; 1
 9ae:	0e 94 c2 03 	call	0x784	; 0x784 <Key_Pad_enter>
 9b2:	e8 16       	cp	r14, r24
 9b4:	f9 06       	cpc	r15, r25
 9b6:	49 f4       	brne	.+18     	; 0x9ca <Admin_Func+0x138>
 9b8:	b8 01       	movw	r22, r16
 9ba:	c7 01       	movw	r24, r14
 9bc:	0e 94 3e 04 	call	0x87c	; 0x87c <Change_Pass>
 9c0:	0e 94 24 03 	call	0x648	; 0x648 <LCD_Clear>
 9c4:	83 e2       	ldi	r24, 0x23	; 35
 9c6:	91 e0       	ldi	r25, 0x01	; 1
 9c8:	09 c0       	rjmp	.+18     	; 0x9dc <Admin_Func+0x14a>
 9ca:	0e 94 24 03 	call	0x648	; 0x648 <LCD_Clear>
 9ce:	8e e2       	ldi	r24, 0x2E	; 46
 9d0:	91 e0       	ldi	r25, 0x01	; 1
 9d2:	1e c0       	rjmp	.+60     	; 0xa10 <Admin_Func+0x17e>
 9d4:	0e 94 24 03 	call	0x648	; 0x648 <LCD_Clear>
 9d8:	88 e3       	ldi	r24, 0x38	; 56
 9da:	91 e0       	ldi	r25, 0x01	; 1
 9dc:	0e 94 fd 02 	call	0x5fa	; 0x5fa <LCD_WriteString>
 9e0:	2f ef       	ldi	r18, 0xFF	; 255
 9e2:	89 e6       	ldi	r24, 0x69	; 105
 9e4:	98 e1       	ldi	r25, 0x18	; 24
 9e6:	21 50       	subi	r18, 0x01	; 1
 9e8:	80 40       	sbci	r24, 0x00	; 0
 9ea:	90 40       	sbci	r25, 0x00	; 0
 9ec:	e1 f7       	brne	.-8      	; 0x9e6 <Admin_Func+0x154>
 9ee:	00 c0       	rjmp	.+0      	; 0x9f0 <Admin_Func+0x15e>
 9f0:	00 00       	nop
 9f2:	1b c0       	rjmp	.+54     	; 0xa2a <Admin_Func+0x198>
 9f4:	0e 94 24 03 	call	0x648	; 0x648 <LCD_Clear>
 9f8:	81 e4       	ldi	r24, 0x41	; 65
 9fa:	91 e0       	ldi	r25, 0x01	; 1
 9fc:	09 c0       	rjmp	.+18     	; 0xa10 <Admin_Func+0x17e>
 9fe:	0e 94 24 03 	call	0x648	; 0x648 <LCD_Clear>
 a02:	88 e3       	ldi	r24, 0x38	; 56
 a04:	91 e0       	ldi	r25, 0x01	; 1
 a06:	04 c0       	rjmp	.+8      	; 0xa10 <Admin_Func+0x17e>
 a08:	0e 94 24 03 	call	0x648	; 0x648 <LCD_Clear>
 a0c:	8a e4       	ldi	r24, 0x4A	; 74
 a0e:	91 e0       	ldi	r25, 0x01	; 1
 a10:	0e 94 fd 02 	call	0x5fa	; 0x5fa <LCD_WriteString>
 a14:	2f ef       	ldi	r18, 0xFF	; 255
 a16:	89 e6       	ldi	r24, 0x69	; 105
 a18:	98 e1       	ldi	r25, 0x18	; 24
 a1a:	21 50       	subi	r18, 0x01	; 1
 a1c:	80 40       	sbci	r24, 0x00	; 0
 a1e:	90 40       	sbci	r25, 0x00	; 0
 a20:	e1 f7       	brne	.-8      	; 0xa1a <Admin_Func+0x188>
 a22:	00 c0       	rjmp	.+0      	; 0xa24 <Admin_Func+0x192>
 a24:	00 00       	nop
 a26:	0e 94 24 03 	call	0x648	; 0x648 <LCD_Clear>
 a2a:	0f 90       	pop	r0
 a2c:	0f 90       	pop	r0
 a2e:	0f 90       	pop	r0
 a30:	df 91       	pop	r29
 a32:	cf 91       	pop	r28
 a34:	1f 91       	pop	r17
 a36:	0f 91       	pop	r16
 a38:	ff 90       	pop	r15
 a3a:	ef 90       	pop	r14
 a3c:	08 95       	ret

00000a3e <__vector_1>:
 a3e:	1f 92       	push	r1
 a40:	0f 92       	push	r0
 a42:	0f b6       	in	r0, 0x3f	; 63
 a44:	0f 92       	push	r0
 a46:	11 24       	eor	r1, r1
 a48:	2f 93       	push	r18
 a4a:	3f 93       	push	r19
 a4c:	4f 93       	push	r20
 a4e:	5f 93       	push	r21
 a50:	6f 93       	push	r22
 a52:	7f 93       	push	r23
 a54:	8f 93       	push	r24
 a56:	9f 93       	push	r25
 a58:	af 93       	push	r26
 a5a:	bf 93       	push	r27
 a5c:	ef 93       	push	r30
 a5e:	ff 93       	push	r31
 a60:	0e 94 49 04 	call	0x892	; 0x892 <Admin_Func>
 a64:	ff 91       	pop	r31
 a66:	ef 91       	pop	r30
 a68:	bf 91       	pop	r27
 a6a:	af 91       	pop	r26
 a6c:	9f 91       	pop	r25
 a6e:	8f 91       	pop	r24
 a70:	7f 91       	pop	r23
 a72:	6f 91       	pop	r22
 a74:	5f 91       	pop	r21
 a76:	4f 91       	pop	r20
 a78:	3f 91       	pop	r19
 a7a:	2f 91       	pop	r18
 a7c:	0f 90       	pop	r0
 a7e:	0f be       	out	0x3f, r0	; 63
 a80:	0f 90       	pop	r0
 a82:	1f 90       	pop	r1
 a84:	18 95       	reti

00000a86 <Student_Func>:
 a86:	ef 92       	push	r14
 a88:	ff 92       	push	r15
 a8a:	0f 93       	push	r16
 a8c:	1f 93       	push	r17
 a8e:	cf 93       	push	r28
 a90:	df 93       	push	r29
 a92:	00 d0       	rcall	.+0      	; 0xa94 <Student_Func+0xe>
 a94:	1f 92       	push	r1
 a96:	cd b7       	in	r28, 0x3d	; 61
 a98:	de b7       	in	r29, 0x3e	; 62
 a9a:	0e 94 24 03 	call	0x648	; 0x648 <LCD_Clear>
 a9e:	83 e5       	ldi	r24, 0x53	; 83
 aa0:	91 e0       	ldi	r25, 0x01	; 1
 aa2:	0e 94 fd 02 	call	0x5fa	; 0x5fa <LCD_WriteString>
 aa6:	2f ef       	ldi	r18, 0xFF	; 255
 aa8:	89 e6       	ldi	r24, 0x69	; 105
 aaa:	98 e1       	ldi	r25, 0x18	; 24
 aac:	21 50       	subi	r18, 0x01	; 1
 aae:	80 40       	sbci	r24, 0x00	; 0
 ab0:	90 40       	sbci	r25, 0x00	; 0
 ab2:	e1 f7       	brne	.-8      	; 0xaac <Student_Func+0x26>
 ab4:	00 c0       	rjmp	.+0      	; 0xab6 <Student_Func+0x30>
 ab6:	00 00       	nop
 ab8:	0e 94 24 03 	call	0x648	; 0x648 <LCD_Clear>
 abc:	8b e5       	ldi	r24, 0x5B	; 91
 abe:	91 e0       	ldi	r25, 0x01	; 1
 ac0:	0e 94 fd 02 	call	0x5fa	; 0x5fa <LCD_WriteString>
 ac4:	10 92 a0 01 	sts	0x01A0, r1	; 0x8001a0 <__data_end>
 ac8:	60 e0       	ldi	r22, 0x00	; 0
 aca:	81 e0       	ldi	r24, 0x01	; 1
 acc:	0e 94 10 03 	call	0x620	; 0x620 <LCD_GoTo>
 ad0:	ce 01       	movw	r24, r28
 ad2:	01 96       	adiw	r24, 0x01	; 1
 ad4:	0e 94 c2 03 	call	0x784	; 0x784 <Key_Pad_enter>
 ad8:	8c 01       	movw	r16, r24
 ada:	ff 24       	eor	r15, r15
 adc:	f3 94       	inc	r15
 ade:	f0 92 a0 01 	sts	0x01A0, r15	; 0x8001a0 <__data_end>
 ae2:	0e 94 0d 04 	call	0x81a	; 0x81a <Check_ID>
 ae6:	88 23       	and	r24, r24
 ae8:	09 f4       	brne	.+2      	; 0xaec <Student_Func+0x66>
 aea:	53 c0       	rjmp	.+166    	; 0xb92 <Student_Func+0x10c>
 aec:	0e 94 24 03 	call	0x648	; 0x648 <LCD_Clear>
 af0:	89 e6       	ldi	r24, 0x69	; 105
 af2:	91 e0       	ldi	r25, 0x01	; 1
 af4:	0e 94 fd 02 	call	0x5fa	; 0x5fa <LCD_WriteString>
 af8:	60 e0       	ldi	r22, 0x00	; 0
 afa:	81 e0       	ldi	r24, 0x01	; 1
 afc:	0e 94 10 03 	call	0x620	; 0x620 <LCD_GoTo>
 b00:	ce 01       	movw	r24, r28
 b02:	01 96       	adiw	r24, 0x01	; 1
 b04:	0e 94 c2 03 	call	0x784	; 0x784 <Key_Pad_enter>
 b08:	f0 92 a0 01 	sts	0x01A0, r15	; 0x8001a0 <__data_end>
 b0c:	b8 01       	movw	r22, r16
 b0e:	0e 94 29 04 	call	0x852	; 0x852 <Check_Pass>
 b12:	88 23       	and	r24, r24
 b14:	c9 f1       	breq	.+114    	; 0xb88 <Student_Func+0x102>
 b16:	0e 94 24 03 	call	0x648	; 0x648 <LCD_Clear>
 b1a:	88 e0       	ldi	r24, 0x08	; 8
 b1c:	91 e0       	ldi	r25, 0x01	; 1
 b1e:	0e 94 fd 02 	call	0x5fa	; 0x5fa <LCD_WriteString>
 b22:	60 e0       	ldi	r22, 0x00	; 0
 b24:	81 e0       	ldi	r24, 0x01	; 1
 b26:	0e 94 10 03 	call	0x620	; 0x620 <LCD_GoTo>
 b2a:	ce 01       	movw	r24, r28
 b2c:	01 96       	adiw	r24, 0x01	; 1
 b2e:	0e 94 c2 03 	call	0x784	; 0x784 <Key_Pad_enter>
 b32:	7c 01       	movw	r14, r24
 b34:	0e 94 24 03 	call	0x648	; 0x648 <LCD_Clear>
 b38:	85 e1       	ldi	r24, 0x15	; 21
 b3a:	91 e0       	ldi	r25, 0x01	; 1
 b3c:	0e 94 fd 02 	call	0x5fa	; 0x5fa <LCD_WriteString>
 b40:	60 e0       	ldi	r22, 0x00	; 0
 b42:	81 e0       	ldi	r24, 0x01	; 1
 b44:	0e 94 10 03 	call	0x620	; 0x620 <LCD_GoTo>
 b48:	ce 01       	movw	r24, r28
 b4a:	01 96       	adiw	r24, 0x01	; 1
 b4c:	0e 94 c2 03 	call	0x784	; 0x784 <Key_Pad_enter>
 b50:	e8 16       	cp	r14, r24
 b52:	f9 06       	cpc	r15, r25
 b54:	a1 f4       	brne	.+40     	; 0xb7e <Student_Func+0xf8>
 b56:	b8 01       	movw	r22, r16
 b58:	c7 01       	movw	r24, r14
 b5a:	0e 94 3e 04 	call	0x87c	; 0x87c <Change_Pass>
 b5e:	0e 94 24 03 	call	0x648	; 0x648 <LCD_Clear>
 b62:	83 e2       	ldi	r24, 0x23	; 35
 b64:	91 e0       	ldi	r25, 0x01	; 1
 b66:	0e 94 fd 02 	call	0x5fa	; 0x5fa <LCD_WriteString>
 b6a:	2f ef       	ldi	r18, 0xFF	; 255
 b6c:	89 e6       	ldi	r24, 0x69	; 105
 b6e:	98 e1       	ldi	r25, 0x18	; 24
 b70:	21 50       	subi	r18, 0x01	; 1
 b72:	80 40       	sbci	r24, 0x00	; 0
 b74:	90 40       	sbci	r25, 0x00	; 0
 b76:	e1 f7       	brne	.-8      	; 0xb70 <Student_Func+0xea>
 b78:	00 c0       	rjmp	.+0      	; 0xb7a <Student_Func+0xf4>
 b7a:	00 00       	nop
 b7c:	1b c0       	rjmp	.+54     	; 0xbb4 <Student_Func+0x12e>
 b7e:	0e 94 24 03 	call	0x648	; 0x648 <LCD_Clear>
 b82:	8e e2       	ldi	r24, 0x2E	; 46
 b84:	91 e0       	ldi	r25, 0x01	; 1
 b86:	09 c0       	rjmp	.+18     	; 0xb9a <Student_Func+0x114>
 b88:	0e 94 24 03 	call	0x648	; 0x648 <LCD_Clear>
 b8c:	88 e3       	ldi	r24, 0x38	; 56
 b8e:	91 e0       	ldi	r25, 0x01	; 1
 b90:	04 c0       	rjmp	.+8      	; 0xb9a <Student_Func+0x114>
 b92:	0e 94 24 03 	call	0x648	; 0x648 <LCD_Clear>
 b96:	8a e4       	ldi	r24, 0x4A	; 74
 b98:	91 e0       	ldi	r25, 0x01	; 1
 b9a:	0e 94 fd 02 	call	0x5fa	; 0x5fa <LCD_WriteString>
 b9e:	2f ef       	ldi	r18, 0xFF	; 255
 ba0:	89 e6       	ldi	r24, 0x69	; 105
 ba2:	98 e1       	ldi	r25, 0x18	; 24
 ba4:	21 50       	subi	r18, 0x01	; 1
 ba6:	80 40       	sbci	r24, 0x00	; 0
 ba8:	90 40       	sbci	r25, 0x00	; 0
 baa:	e1 f7       	brne	.-8      	; 0xba4 <Student_Func+0x11e>
 bac:	00 c0       	rjmp	.+0      	; 0xbae <Student_Func+0x128>
 bae:	00 00       	nop
 bb0:	0e 94 24 03 	call	0x648	; 0x648 <LCD_Clear>
 bb4:	0f 90       	pop	r0
 bb6:	0f 90       	pop	r0
 bb8:	0f 90       	pop	r0
 bba:	df 91       	pop	r29
 bbc:	cf 91       	pop	r28
 bbe:	1f 91       	pop	r17
 bc0:	0f 91       	pop	r16
 bc2:	ff 90       	pop	r15
 bc4:	ef 90       	pop	r14
 bc6:	08 95       	ret

00000bc8 <__vector_2>:
 bc8:	1f 92       	push	r1
 bca:	0f 92       	push	r0
 bcc:	0f b6       	in	r0, 0x3f	; 63
 bce:	0f 92       	push	r0
 bd0:	11 24       	eor	r1, r1
 bd2:	2f 93       	push	r18
 bd4:	3f 93       	push	r19
 bd6:	4f 93       	push	r20
 bd8:	5f 93       	push	r21
 bda:	6f 93       	push	r22
 bdc:	7f 93       	push	r23
 bde:	8f 93       	push	r24
 be0:	9f 93       	push	r25
 be2:	af 93       	push	r26
 be4:	bf 93       	push	r27
 be6:	ef 93       	push	r30
 be8:	ff 93       	push	r31
 bea:	0e 94 43 05 	call	0xa86	; 0xa86 <Student_Func>
 bee:	ff 91       	pop	r31
 bf0:	ef 91       	pop	r30
 bf2:	bf 91       	pop	r27
 bf4:	af 91       	pop	r26
 bf6:	9f 91       	pop	r25
 bf8:	8f 91       	pop	r24
 bfa:	7f 91       	pop	r23
 bfc:	6f 91       	pop	r22
 bfe:	5f 91       	pop	r21
 c00:	4f 91       	pop	r20
 c02:	3f 91       	pop	r19
 c04:	2f 91       	pop	r18
 c06:	0f 90       	pop	r0
 c08:	0f be       	out	0x3f, r0	; 63
 c0a:	0f 90       	pop	r0
 c0c:	1f 90       	pop	r1
 c0e:	18 95       	reti

00000c10 <Motor_Trigger>:
 c10:	88 23       	and	r24, r24
 c12:	21 f0       	breq	.+8      	; 0xc1c <Motor_Trigger+0xc>
 c14:	81 30       	cpi	r24, 0x01	; 1
 c16:	39 f4       	brne	.+14     	; 0xc26 <Motor_Trigger+0x16>
 c18:	41 e0       	ldi	r20, 0x01	; 1
 c1a:	01 c0       	rjmp	.+2      	; 0xc1e <Motor_Trigger+0xe>
 c1c:	40 e0       	ldi	r20, 0x00	; 0
 c1e:	61 e0       	ldi	r22, 0x01	; 1
 c20:	83 e0       	ldi	r24, 0x03	; 3
 c22:	0c 94 ae 00 	jmp	0x15c	; 0x15c <DIO_WritePin>
 c26:	08 95       	ret

00000c28 <Buzzer_Trigger>:
 c28:	88 23       	and	r24, r24
 c2a:	39 f0       	breq	.+14     	; 0xc3a <Buzzer_Trigger+0x12>
 c2c:	81 30       	cpi	r24, 0x01	; 1
 c2e:	39 f4       	brne	.+14     	; 0xc3e <Buzzer_Trigger+0x16>
 c30:	41 e0       	ldi	r20, 0x01	; 1
 c32:	65 e0       	ldi	r22, 0x05	; 5
 c34:	83 e0       	ldi	r24, 0x03	; 3
 c36:	0c 94 ae 00 	jmp	0x15c	; 0x15c <DIO_WritePin>
 c3a:	0c 94 27 03 	jmp	0x64e	; 0x64e <Buzzer_Trigger.part.1>
 c3e:	08 95       	ret

00000c40 <main>:
 c40:	cf 93       	push	r28
 c42:	df 93       	push	r29
 c44:	00 d0       	rcall	.+0      	; 0xc46 <main+0x6>
 c46:	1f 92       	push	r1
 c48:	cd b7       	in	r28, 0x3d	; 61
 c4a:	de b7       	in	r29, 0x3e	; 62
 c4c:	0e 94 2c 03 	call	0x658	; 0x658 <System_Init>
 c50:	8e e0       	ldi	r24, 0x0E	; 14
 c52:	d8 2e       	mov	r13, r24
 c54:	0e 94 24 03 	call	0x648	; 0x648 <LCD_Clear>
 c58:	10 92 a0 01 	sts	0x01A0, r1	; 0x8001a0 <__data_end>
 c5c:	87 e7       	ldi	r24, 0x77	; 119
 c5e:	91 e0       	ldi	r25, 0x01	; 1
 c60:	0e 94 fd 02 	call	0x5fa	; 0x5fa <LCD_WriteString>
 c64:	0e 94 e1 01 	call	0x3c2	; 0x3c2 <KeyPad_GetValue>
 c68:	2f e7       	ldi	r18, 0x7F	; 127
 c6a:	3a e1       	ldi	r19, 0x1A	; 26
 c6c:	96 e0       	ldi	r25, 0x06	; 6
 c6e:	21 50       	subi	r18, 0x01	; 1
 c70:	30 40       	sbci	r19, 0x00	; 0
 c72:	90 40       	sbci	r25, 0x00	; 0
 c74:	e1 f7       	brne	.-8      	; 0xc6e <main+0x2e>
 c76:	00 c0       	rjmp	.+0      	; 0xc78 <main+0x38>
 c78:	00 00       	nop
 c7a:	8a 32       	cpi	r24, 0x2A	; 42
 c7c:	59 f7       	brne	.-42     	; 0xc54 <main+0x14>
 c7e:	0e 94 24 03 	call	0x648	; 0x648 <LCD_Clear>
 c82:	8f e7       	ldi	r24, 0x7F	; 127
 c84:	91 e0       	ldi	r25, 0x01	; 1
 c86:	0e 94 fd 02 	call	0x5fa	; 0x5fa <LCD_WriteString>
 c8a:	60 e0       	ldi	r22, 0x00	; 0
 c8c:	81 e0       	ldi	r24, 0x01	; 1
 c8e:	0e 94 10 03 	call	0x620	; 0x620 <LCD_GoTo>
 c92:	ce 01       	movw	r24, r28
 c94:	01 96       	adiw	r24, 0x01	; 1
 c96:	0e 94 c2 03 	call	0x784	; 0x784 <Key_Pad_enter>
 c9a:	8c 01       	movw	r16, r24
 c9c:	0e 94 0d 04 	call	0x81a	; 0x81a <Check_ID>
 ca0:	81 11       	cpse	r24, r1
 ca2:	2c c0       	rjmp	.+88     	; 0xcfc <main+0xbc>
 ca4:	0e 94 24 03 	call	0x648	; 0x648 <LCD_Clear>
 ca8:	81 e4       	ldi	r24, 0x41	; 65
 caa:	91 e0       	ldi	r25, 0x01	; 1
 cac:	0e 94 fd 02 	call	0x5fa	; 0x5fa <LCD_WriteString>
 cb0:	81 e0       	ldi	r24, 0x01	; 1
 cb2:	0e 94 14 06 	call	0xc28	; 0xc28 <Buzzer_Trigger>
 cb6:	2f ef       	ldi	r18, 0xFF	; 255
 cb8:	39 e6       	ldi	r19, 0x69	; 105
 cba:	88 e1       	ldi	r24, 0x18	; 24
 cbc:	21 50       	subi	r18, 0x01	; 1
 cbe:	30 40       	sbci	r19, 0x00	; 0
 cc0:	80 40       	sbci	r24, 0x00	; 0
 cc2:	e1 f7       	brne	.-8      	; 0xcbc <main+0x7c>
 cc4:	00 c0       	rjmp	.+0      	; 0xcc6 <main+0x86>
 cc6:	00 00       	nop
 cc8:	0e 94 27 03 	call	0x64e	; 0x64e <Buzzer_Trigger.part.1>
 ccc:	9f ef       	ldi	r25, 0xFF	; 255
 cce:	29 e6       	ldi	r18, 0x69	; 105
 cd0:	38 e1       	ldi	r19, 0x18	; 24
 cd2:	91 50       	subi	r25, 0x01	; 1
 cd4:	20 40       	sbci	r18, 0x00	; 0
 cd6:	30 40       	sbci	r19, 0x00	; 0
 cd8:	e1 f7       	brne	.-8      	; 0xcd2 <main+0x92>
 cda:	00 c0       	rjmp	.+0      	; 0xcdc <main+0x9c>
 cdc:	00 00       	nop
 cde:	81 e0       	ldi	r24, 0x01	; 1
 ce0:	0e 94 14 06 	call	0xc28	; 0xc28 <Buzzer_Trigger>
 ce4:	8f ef       	ldi	r24, 0xFF	; 255
 ce6:	99 e6       	ldi	r25, 0x69	; 105
 ce8:	28 e1       	ldi	r18, 0x18	; 24
 cea:	81 50       	subi	r24, 0x01	; 1
 cec:	90 40       	sbci	r25, 0x00	; 0
 cee:	20 40       	sbci	r18, 0x00	; 0
 cf0:	e1 f7       	brne	.-8      	; 0xcea <main+0xaa>
 cf2:	00 c0       	rjmp	.+0      	; 0xcf4 <main+0xb4>
 cf4:	00 00       	nop
 cf6:	0e 94 27 03 	call	0x64e	; 0x64e <Buzzer_Trigger.part.1>
 cfa:	ac cf       	rjmp	.-168    	; 0xc54 <main+0x14>
 cfc:	c8 01       	movw	r24, r16
 cfe:	0e 94 0d 04 	call	0x81a	; 0x81a <Check_ID>
 d02:	f8 2e       	mov	r15, r24
 d04:	31 e0       	ldi	r19, 0x01	; 1
 d06:	83 13       	cpse	r24, r19
 d08:	a5 cf       	rjmp	.-182    	; 0xc54 <main+0x14>
 d0a:	0e 94 24 03 	call	0x648	; 0x648 <LCD_Clear>
 d0e:	88 e8       	ldi	r24, 0x88	; 136
 d10:	91 e0       	ldi	r25, 0x01	; 1
 d12:	0e 94 fd 02 	call	0x5fa	; 0x5fa <LCD_WriteString>
 d16:	60 e0       	ldi	r22, 0x00	; 0
 d18:	81 e0       	ldi	r24, 0x01	; 1
 d1a:	0e 94 10 03 	call	0x620	; 0x620 <LCD_GoTo>
 d1e:	f0 92 a0 01 	sts	0x01A0, r15	; 0x8001a0 <__data_end>
 d22:	ce 01       	movw	r24, r28
 d24:	01 96       	adiw	r24, 0x01	; 1
 d26:	0e 94 c2 03 	call	0x784	; 0x784 <Key_Pad_enter>
 d2a:	7c 01       	movw	r14, r24
 d2c:	b8 01       	movw	r22, r16
 d2e:	0e 94 29 04 	call	0x852	; 0x852 <Check_Pass>
 d32:	81 30       	cpi	r24, 0x01	; 1
 d34:	09 f0       	breq	.+2      	; 0xd38 <main+0xf8>
 d36:	3f c0       	rjmp	.+126    	; 0xdb6 <main+0x176>
 d38:	0e 94 24 03 	call	0x648	; 0x648 <LCD_Clear>
 d3c:	10 92 a0 01 	sts	0x01A0, r1	; 0x8001a0 <__data_end>
 d40:	e0 e6       	ldi	r30, 0x60	; 96
 d42:	f0 e0       	ldi	r31, 0x00	; 0
 d44:	e1 2c       	mov	r14, r1
 d46:	f1 2c       	mov	r15, r1
 d48:	82 85       	ldd	r24, Z+10	; 0x0a
 d4a:	93 85       	ldd	r25, Z+11	; 0x0b
 d4c:	08 17       	cp	r16, r24
 d4e:	19 07       	cpc	r17, r25
 d50:	49 f5       	brne	.+82     	; 0xda4 <main+0x164>
 d52:	81 e9       	ldi	r24, 0x91	; 145
 d54:	91 e0       	ldi	r25, 0x01	; 1
 d56:	0e 94 fd 02 	call	0x5fa	; 0x5fa <LCD_WriteString>
 d5a:	60 e0       	ldi	r22, 0x00	; 0
 d5c:	81 e0       	ldi	r24, 0x01	; 1
 d5e:	0e 94 10 03 	call	0x620	; 0x620 <LCD_GoTo>
 d62:	de 9c       	mul	r13, r14
 d64:	c0 01       	movw	r24, r0
 d66:	df 9c       	mul	r13, r15
 d68:	90 0d       	add	r25, r0
 d6a:	11 24       	eor	r1, r1
 d6c:	80 5a       	subi	r24, 0xA0	; 160
 d6e:	9f 4f       	sbci	r25, 0xFF	; 255
 d70:	0e 94 fd 02 	call	0x5fa	; 0x5fa <LCD_WriteString>
 d74:	81 e0       	ldi	r24, 0x01	; 1
 d76:	0e 94 08 06 	call	0xc10	; 0xc10 <Motor_Trigger>
 d7a:	8f ef       	ldi	r24, 0xFF	; 255
 d7c:	91 e1       	ldi	r25, 0x11	; 17
 d7e:	2a e7       	ldi	r18, 0x7A	; 122
 d80:	81 50       	subi	r24, 0x01	; 1
 d82:	90 40       	sbci	r25, 0x00	; 0
 d84:	20 40       	sbci	r18, 0x00	; 0
 d86:	e1 f7       	brne	.-8      	; 0xd80 <main+0x140>
 d88:	00 c0       	rjmp	.+0      	; 0xd8a <main+0x14a>
 d8a:	00 00       	nop
 d8c:	40 e0       	ldi	r20, 0x00	; 0
 d8e:	61 e0       	ldi	r22, 0x01	; 1
 d90:	83 e0       	ldi	r24, 0x03	; 3
 d92:	0e 94 ae 00 	call	0x15c	; 0x15c <DIO_WritePin>
 d96:	0e 94 24 03 	call	0x648	; 0x648 <LCD_Clear>
 d9a:	89 e9       	ldi	r24, 0x99	; 153
 d9c:	91 e0       	ldi	r25, 0x01	; 1
 d9e:	0e 94 fd 02 	call	0x5fa	; 0x5fa <LCD_WriteString>
 da2:	58 cf       	rjmp	.-336    	; 0xc54 <main+0x14>
 da4:	3f ef       	ldi	r19, 0xFF	; 255
 da6:	e3 1a       	sub	r14, r19
 da8:	f3 0a       	sbc	r15, r19
 daa:	3e 96       	adiw	r30, 0x0e	; 14
 dac:	85 e0       	ldi	r24, 0x05	; 5
 dae:	e8 16       	cp	r14, r24
 db0:	f1 04       	cpc	r15, r1
 db2:	51 f6       	brne	.-108    	; 0xd48 <main+0x108>
 db4:	4f cf       	rjmp	.-354    	; 0xc54 <main+0x14>
 db6:	b8 01       	movw	r22, r16
 db8:	c7 01       	movw	r24, r14
 dba:	0e 94 29 04 	call	0x852	; 0x852 <Check_Pass>
 dbe:	81 11       	cpse	r24, r1
 dc0:	49 cf       	rjmp	.-366    	; 0xc54 <main+0x14>
 dc2:	0e 94 24 03 	call	0x648	; 0x648 <LCD_Clear>
 dc6:	88 e3       	ldi	r24, 0x38	; 56
 dc8:	91 e0       	ldi	r25, 0x01	; 1
 dca:	0e 94 fd 02 	call	0x5fa	; 0x5fa <LCD_WriteString>
 dce:	81 e0       	ldi	r24, 0x01	; 1
 dd0:	0e 94 14 06 	call	0xc28	; 0xc28 <Buzzer_Trigger>
 dd4:	9f ef       	ldi	r25, 0xFF	; 255
 dd6:	29 e6       	ldi	r18, 0x69	; 105
 dd8:	38 e1       	ldi	r19, 0x18	; 24
 dda:	91 50       	subi	r25, 0x01	; 1
 ddc:	20 40       	sbci	r18, 0x00	; 0
 dde:	30 40       	sbci	r19, 0x00	; 0
 de0:	e1 f7       	brne	.-8      	; 0xdda <main+0x19a>
 de2:	00 c0       	rjmp	.+0      	; 0xde4 <main+0x1a4>
 de4:	00 00       	nop
 de6:	0e 94 27 03 	call	0x64e	; 0x64e <Buzzer_Trigger.part.1>
 dea:	0e 94 24 03 	call	0x648	; 0x648 <LCD_Clear>
 dee:	32 cf       	rjmp	.-412    	; 0xc54 <main+0x14>

00000df0 <_exit>:
 df0:	f8 94       	cli

00000df2 <__stop_program>:
 df2:	ff cf       	rjmp	.-2      	; 0xdf2 <__stop_program>
